
./dgemm:     file format elf64-x86-64


Disassembly of section .init:

0000000000402000 <_init>:
  402000:	f3 0f 1e fa          	endbr64 
  402004:	48 83 ec 08          	sub    $0x8,%rsp
  402008:	48 8b 05 a1 4f 03 00 	mov    0x34fa1(%rip),%rax        # 436fb0 <__gmon_start__>
  40200f:	48 85 c0             	test   %rax,%rax
  402012:	74 02                	je     402016 <_init+0x16>
  402014:	ff d0                	callq  *%rax
  402016:	48 83 c4 08          	add    $0x8,%rsp
  40201a:	c3                   	retq   

Disassembly of section .plt:

0000000000402020 <.plt>:
  402020:	ff 35 e2 4f 03 00    	pushq  0x34fe2(%rip)        # 437008 <_GLOBAL_OFFSET_TABLE_+0x8>
  402026:	ff 25 e4 4f 03 00    	jmpq   *0x34fe4(%rip)        # 437010 <_GLOBAL_OFFSET_TABLE_+0x10>
  40202c:	0f 1f 40 00          	nopl   0x0(%rax)

0000000000402030 <__kmpc_reduce@plt>:
  402030:	ff 25 e2 4f 03 00    	jmpq   *0x34fe2(%rip)        # 437018 <__kmpc_reduce@VERSION>
  402036:	68 00 00 00 00       	pushq  $0x0
  40203b:	e9 e0 ff ff ff       	jmpq   402020 <.plt>

0000000000402040 <printf@plt>:
  402040:	ff 25 da 4f 03 00    	jmpq   *0x34fda(%rip)        # 437020 <printf@GLIBC_2.2.5>
  402046:	68 01 00 00 00       	pushq  $0x1
  40204b:	e9 d0 ff ff ff       	jmpq   402020 <.plt>

0000000000402050 <free@plt>:
  402050:	ff 25 d2 4f 03 00    	jmpq   *0x34fd2(%rip)        # 437028 <free@GLIBC_2.2.5>
  402056:	68 02 00 00 00       	pushq  $0x2
  40205b:	e9 c0 ff ff ff       	jmpq   402020 <.plt>

0000000000402060 <cblas_dgemm@plt>:
  402060:	ff 25 ca 4f 03 00    	jmpq   *0x34fca(%rip)        # 437030 <cblas_dgemm>
  402066:	68 03 00 00 00       	pushq  $0x3
  40206b:	e9 b0 ff ff ff       	jmpq   402020 <.plt>

0000000000402070 <fprintf@plt>:
  402070:	ff 25 c2 4f 03 00    	jmpq   *0x34fc2(%rip)        # 437038 <fprintf@GLIBC_2.2.5>
  402076:	68 04 00 00 00       	pushq  $0x4
  40207b:	e9 a0 ff ff ff       	jmpq   402020 <.plt>

0000000000402080 <__vsnprintf_chk@plt>:
  402080:	ff 25 ba 4f 03 00    	jmpq   *0x34fba(%rip)        # 437040 <__vsnprintf_chk@GLIBC_2.3.4>
  402086:	68 05 00 00 00       	pushq  $0x5
  40208b:	e9 90 ff ff ff       	jmpq   402020 <.plt>

0000000000402090 <__stack_chk_fail@plt>:
  402090:	ff 25 b2 4f 03 00    	jmpq   *0x34fb2(%rip)        # 437048 <__stack_chk_fail@GLIBC_2.4>
  402096:	68 06 00 00 00       	pushq  $0x6
  40209b:	e9 80 ff ff ff       	jmpq   402020 <.plt>

00000000004020a0 <fputs@plt>:
  4020a0:	ff 25 aa 4f 03 00    	jmpq   *0x34faa(%rip)        # 437050 <fputs@GLIBC_2.2.5>
  4020a6:	68 07 00 00 00       	pushq  $0x7
  4020ab:	e9 70 ff ff ff       	jmpq   402020 <.plt>

00000000004020b0 <__strncpy_chk@plt>:
  4020b0:	ff 25 a2 4f 03 00    	jmpq   *0x34fa2(%rip)        # 437058 <__strncpy_chk@GLIBC_2.3.4>
  4020b6:	68 08 00 00 00       	pushq  $0x8
  4020bb:	e9 60 ff ff ff       	jmpq   402020 <.plt>

00000000004020c0 <strlen@plt>:
  4020c0:	ff 25 9a 4f 03 00    	jmpq   *0x34f9a(%rip)        # 437060 <strlen@GLIBC_2.2.5>
  4020c6:	68 09 00 00 00       	pushq  $0x9
  4020cb:	e9 50 ff ff ff       	jmpq   402020 <.plt>

00000000004020d0 <fclose@plt>:
  4020d0:	ff 25 92 4f 03 00    	jmpq   *0x34f92(%rip)        # 437068 <fclose@GLIBC_2.2.5>
  4020d6:	68 0a 00 00 00       	pushq  $0xa
  4020db:	e9 40 ff ff ff       	jmpq   402020 <.plt>

00000000004020e0 <gettimeofday@plt>:
  4020e0:	ff 25 8a 4f 03 00    	jmpq   *0x34f8a(%rip)        # 437070 <gettimeofday@GLIBC_2.2.5>
  4020e6:	68 0b 00 00 00       	pushq  $0xb
  4020eb:	e9 30 ff ff ff       	jmpq   402020 <.plt>

00000000004020f0 <__kmpc_fork_call@plt>:
  4020f0:	ff 25 82 4f 03 00    	jmpq   *0x34f82(%rip)        # 437078 <__kmpc_fork_call@VERSION>
  4020f6:	68 0c 00 00 00       	pushq  $0xc
  4020fb:	e9 20 ff ff ff       	jmpq   402020 <.plt>

0000000000402100 <strchr@plt>:
  402100:	ff 25 7a 4f 03 00    	jmpq   *0x34f7a(%rip)        # 437080 <strchr@GLIBC_2.2.5>
  402106:	68 0d 00 00 00       	pushq  $0xd
  40210b:	e9 10 ff ff ff       	jmpq   402020 <.plt>

0000000000402110 <setenv@plt>:
  402110:	ff 25 72 4f 03 00    	jmpq   *0x34f72(%rip)        # 437088 <setenv@GLIBC_2.2.5>
  402116:	68 0e 00 00 00       	pushq  $0xe
  40211b:	e9 00 ff ff ff       	jmpq   402020 <.plt>

0000000000402120 <__kmpc_atomic_float8_add@plt>:
  402120:	ff 25 6a 4f 03 00    	jmpq   *0x34f6a(%rip)        # 437090 <__kmpc_atomic_float8_add@VERSION>
  402126:	68 0f 00 00 00       	pushq  $0xf
  40212b:	e9 f0 fe ff ff       	jmpq   402020 <.plt>

0000000000402130 <strcat@plt>:
  402130:	ff 25 62 4f 03 00    	jmpq   *0x34f62(%rip)        # 437098 <strcat@GLIBC_2.2.5>
  402136:	68 10 00 00 00       	pushq  $0x10
  40213b:	e9 e0 fe ff ff       	jmpq   402020 <.plt>

0000000000402140 <getenv@plt>:
  402140:	ff 25 5a 4f 03 00    	jmpq   *0x34f5a(%rip)        # 4370a0 <getenv@GLIBC_2.2.5>
  402146:	68 11 00 00 00       	pushq  $0x11
  40214b:	e9 d0 fe ff ff       	jmpq   402020 <.plt>

0000000000402150 <catgets@plt>:
  402150:	ff 25 52 4f 03 00    	jmpq   *0x34f52(%rip)        # 4370a8 <catgets@GLIBC_2.2.5>
  402156:	68 12 00 00 00       	pushq  $0x12
  40215b:	e9 c0 fe ff ff       	jmpq   402020 <.plt>

0000000000402160 <__kmpc_for_static_init_4@plt>:
  402160:	ff 25 4a 4f 03 00    	jmpq   *0x34f4a(%rip)        # 4370b0 <__kmpc_for_static_init_4@VERSION>
  402166:	68 13 00 00 00       	pushq  $0x13
  40216b:	e9 b0 fe ff ff       	jmpq   402020 <.plt>

0000000000402170 <__kmpc_end_reduce@plt>:
  402170:	ff 25 42 4f 03 00    	jmpq   *0x34f42(%rip)        # 4370b8 <__kmpc_end_reduce@VERSION>
  402176:	68 14 00 00 00       	pushq  $0x14
  40217b:	e9 a0 fe ff ff       	jmpq   402020 <.plt>

0000000000402180 <malloc@plt>:
  402180:	ff 25 3a 4f 03 00    	jmpq   *0x34f3a(%rip)        # 4370c0 <malloc@GLIBC_2.2.5>
  402186:	68 15 00 00 00       	pushq  $0x15
  40218b:	e9 90 fe ff ff       	jmpq   402020 <.plt>

0000000000402190 <__errno_location@plt>:
  402190:	ff 25 32 4f 03 00    	jmpq   *0x34f32(%rip)        # 4370c8 <__errno_location@GLIBC_2.2.5>
  402196:	68 16 00 00 00       	pushq  $0x16
  40219b:	e9 80 fe ff ff       	jmpq   402020 <.plt>

00000000004021a0 <puts@plt>:
  4021a0:	ff 25 2a 4f 03 00    	jmpq   *0x34f2a(%rip)        # 4370d0 <puts@GLIBC_2.2.5>
  4021a6:	68 17 00 00 00       	pushq  $0x17
  4021ab:	e9 70 fe ff ff       	jmpq   402020 <.plt>

00000000004021b0 <__kmpc_for_static_fini@plt>:
  4021b0:	ff 25 22 4f 03 00    	jmpq   *0x34f22(%rip)        # 4370d8 <__kmpc_for_static_fini@VERSION>
  4021b6:	68 18 00 00 00       	pushq  $0x18
  4021bb:	e9 60 fe ff ff       	jmpq   402020 <.plt>

00000000004021c0 <putchar@plt>:
  4021c0:	ff 25 1a 4f 03 00    	jmpq   *0x34f1a(%rip)        # 4370e0 <putchar@GLIBC_2.2.5>
  4021c6:	68 19 00 00 00       	pushq  $0x19
  4021cb:	e9 50 fe ff ff       	jmpq   402020 <.plt>

00000000004021d0 <catopen@plt>:
  4021d0:	ff 25 12 4f 03 00    	jmpq   *0x34f12(%rip)        # 4370e8 <catopen@GLIBC_2.2.5>
  4021d6:	68 1a 00 00 00       	pushq  $0x1a
  4021db:	e9 40 fe ff ff       	jmpq   402020 <.plt>

00000000004021e0 <fopen@plt>:
  4021e0:	ff 25 0a 4f 03 00    	jmpq   *0x34f0a(%rip)        # 4370f0 <fopen@GLIBC_2.2.5>
  4021e6:	68 1b 00 00 00       	pushq  $0x1b
  4021eb:	e9 30 fe ff ff       	jmpq   402020 <.plt>

00000000004021f0 <__snprintf_chk@plt>:
  4021f0:	ff 25 02 4f 03 00    	jmpq   *0x34f02(%rip)        # 4370f8 <__snprintf_chk@GLIBC_2.3.4>
  4021f6:	68 1c 00 00 00       	pushq  $0x1c
  4021fb:	e9 20 fe ff ff       	jmpq   402020 <.plt>

Disassembly of section .plt.got:

0000000000402200 <__cxa_finalize@plt>:
  402200:	ff 25 a2 4d 03 00    	jmpq   *0x34da2(%rip)        # 436fa8 <__cxa_finalize@GLIBC_2.2.5>
  402206:	66 90                	xchg   %ax,%ax

Disassembly of section .text:

0000000000402210 <_start>:
  402210:	f3 0f 1e fa          	endbr64 
  402214:	31 ed                	xor    %ebp,%ebp
  402216:	49 89 d1             	mov    %rdx,%r9
  402219:	5e                   	pop    %rsi
  40221a:	48 89 e2             	mov    %rsp,%rdx
  40221d:	48 83 e4 f0          	and    $0xfffffffffffffff0,%rsp
  402221:	50                   	push   %rax
  402222:	54                   	push   %rsp
  402223:	49 c7 c0 90 e3 40 00 	mov    $0x40e390,%r8
  40222a:	48 c7 c1 20 e3 40 00 	mov    $0x40e320,%rcx
  402231:	48 c7 c7 30 23 40 00 	mov    $0x402330,%rdi
  402238:	ff 15 82 4d 03 00    	callq  *0x34d82(%rip)        # 436fc0 <__libc_start_main@GLIBC_2.2.5>
  40223e:	f4                   	hlt    
  40223f:	90                   	nop

0000000000402240 <deregister_tm_clones>:
  402240:	48 8d 3d c9 57 04 00 	lea    0x457c9(%rip),%rdi        # 447a10 <__TMC_END__>
  402247:	48 8d 05 c2 57 04 00 	lea    0x457c2(%rip),%rax        # 447a10 <__TMC_END__>
  40224e:	48 39 f8             	cmp    %rdi,%rax
  402251:	74 15                	je     402268 <deregister_tm_clones+0x28>
  402253:	48 8b 05 46 4d 03 00 	mov    0x34d46(%rip),%rax        # 436fa0 <_ITM_deregisterTMCloneTable>
  40225a:	48 85 c0             	test   %rax,%rax
  40225d:	74 09                	je     402268 <deregister_tm_clones+0x28>
  40225f:	ff e0                	jmpq   *%rax
  402261:	0f 1f 80 00 00 00 00 	nopl   0x0(%rax)
  402268:	c3                   	retq   
  402269:	0f 1f 80 00 00 00 00 	nopl   0x0(%rax)

0000000000402270 <register_tm_clones>:
  402270:	48 8d 3d 99 57 04 00 	lea    0x45799(%rip),%rdi        # 447a10 <__TMC_END__>
  402277:	48 8d 35 92 57 04 00 	lea    0x45792(%rip),%rsi        # 447a10 <__TMC_END__>
  40227e:	48 29 fe             	sub    %rdi,%rsi
  402281:	48 89 f0             	mov    %rsi,%rax
  402284:	48 c1 ee 3f          	shr    $0x3f,%rsi
  402288:	48 c1 f8 03          	sar    $0x3,%rax
  40228c:	48 01 c6             	add    %rax,%rsi
  40228f:	48 d1 fe             	sar    %rsi
  402292:	74 14                	je     4022a8 <register_tm_clones+0x38>
  402294:	48 8b 05 2d 4d 03 00 	mov    0x34d2d(%rip),%rax        # 436fc8 <_ITM_registerTMCloneTable>
  40229b:	48 85 c0             	test   %rax,%rax
  40229e:	74 08                	je     4022a8 <register_tm_clones+0x38>
  4022a0:	ff e0                	jmpq   *%rax
  4022a2:	66 0f 1f 44 00 00    	nopw   0x0(%rax,%rax,1)
  4022a8:	c3                   	retq   
  4022a9:	0f 1f 80 00 00 00 00 	nopl   0x0(%rax)

00000000004022b0 <__do_global_dtors_aux>:
  4022b0:	f3 0f 1e fa          	endbr64 
  4022b4:	80 3d 85 57 04 00 00 	cmpb   $0x0,0x45785(%rip)        # 447a40 <completed.0>
  4022bb:	75 2b                	jne    4022e8 <__do_global_dtors_aux+0x38>
  4022bd:	55                   	push   %rbp
  4022be:	48 83 3d e2 4c 03 00 	cmpq   $0x0,0x34ce2(%rip)        # 436fa8 <__cxa_finalize@GLIBC_2.2.5>
  4022c5:	00 
  4022c6:	48 89 e5             	mov    %rsp,%rbp
  4022c9:	74 0c                	je     4022d7 <__do_global_dtors_aux+0x27>
  4022cb:	48 8b 3d 36 4e 03 00 	mov    0x34e36(%rip),%rdi        # 437108 <__dso_handle>
  4022d2:	e8 29 ff ff ff       	callq  402200 <__cxa_finalize@plt>
  4022d7:	e8 64 ff ff ff       	callq  402240 <deregister_tm_clones>
  4022dc:	c6 05 5d 57 04 00 01 	movb   $0x1,0x4575d(%rip)        # 447a40 <completed.0>
  4022e3:	5d                   	pop    %rbp
  4022e4:	c3                   	retq   
  4022e5:	0f 1f 00             	nopl   (%rax)
  4022e8:	c3                   	retq   
  4022e9:	0f 1f 80 00 00 00 00 	nopl   0x0(%rax)

00000000004022f0 <frame_dummy>:
  4022f0:	f3 0f 1e fa          	endbr64 
  4022f4:	e9 77 ff ff ff       	jmpq   402270 <register_tm_clones>
  4022f9:	0f 1f 80 00 00 00 00 	nopl   0x0(%rax)

0000000000402300 <get_seconds>:
  402300:	48 83 ec 18          	sub    $0x18,%rsp
  402304:	48 8d 7c 24 08       	lea    0x8(%rsp),%rdi
  402309:	31 f6                	xor    %esi,%esi
  40230b:	e8 d0 fd ff ff       	callq  4020e0 <gettimeofday@plt>
  402310:	f2 48 0f 2a 4c 24 08 	cvtsi2sdq 0x8(%rsp),%xmm1
  402317:	f2 48 0f 2a 44 24 10 	cvtsi2sdq 0x10(%rsp),%xmm0
  40231e:	f2 0f 59 05 e2 cc 00 	mulsd  0xcce2(%rip),%xmm0        # 40f008 <_IO_stdin_used+0x8>
  402325:	00 
  402326:	f2 0f 58 c1          	addsd  %xmm1,%xmm0
  40232a:	48 83 c4 18          	add    $0x18,%rsp
  40232e:	c3                   	retq   
  40232f:	90                   	nop

0000000000402330 <main>:
  402330:	55                   	push   %rbp
  402331:	48 89 e5             	mov    %rsp,%rbp
  402334:	41 57                	push   %r15
  402336:	41 56                	push   %r14
  402338:	41 55                	push   %r13
  40233a:	41 54                	push   %r12
  40233c:	53                   	push   %rbx
  40233d:	48 81 ec f8 00 00 00 	sub    $0xf8,%rsp
  402344:	0f ae 9d 60 ff ff ff 	stmxcsr -0xa0(%rbp)
  40234b:	48 89 f3             	mov    %rsi,%rbx
  40234e:	81 8d 60 ff ff ff 40 	orl    $0x8040,-0xa0(%rbp)
  402355:	80 00 00 
  402358:	0f ae 95 60 ff ff ff 	ldmxcsr -0xa0(%rbp)
  40235f:	f2 0f 10 05 a9 cc 00 	movsd  0xcca9(%rip),%xmm0        # 40f010 <_IO_stdin_used+0x10>
  402366:	00 
  402367:	bf 80 f0 40 00       	mov    $0x40f080,%edi
  40236c:	b0 01                	mov    $0x1,%al
  40236e:	e8 cd fc ff ff       	callq  402040 <printf@plt>
  402373:	bf 8f f0 40 00       	mov    $0x40f08f,%edi
  402378:	f2 0f 10 05 90 cc 00 	movsd  0xcc90(%rip),%xmm0        # 40f010 <_IO_stdin_used+0x10>
  40237f:	00 
  402380:	b0 01                	mov    $0x1,%al
  402382:	e8 b9 fc ff ff       	callq  402040 <printf@plt>
  402387:	0f 57 c0             	xorps  %xmm0,%xmm0
  40238a:	0f 29 45 80          	movaps %xmm0,-0x80(%rbp)
  40238e:	0f 29 85 70 ff ff ff 	movaps %xmm0,-0x90(%rbp)
  402395:	0f 29 85 60 ff ff ff 	movaps %xmm0,-0xa0(%rbp)
  40239c:	66 c7 45 90 00 00    	movw   $0x0,-0x70(%rbp)
  4023a2:	0f 29 85 40 ff ff ff 	movaps %xmm0,-0xc0(%rbp)
  4023a9:	0f 29 85 30 ff ff ff 	movaps %xmm0,-0xd0(%rbp)
  4023b0:	0f 29 85 20 ff ff ff 	movaps %xmm0,-0xe0(%rbp)
  4023b7:	66 c7 85 50 ff ff ff 	movw   $0x0,-0xb0(%rbp)
  4023be:	00 00 
  4023c0:	0f 29 85 00 ff ff ff 	movaps %xmm0,-0x100(%rbp)
  4023c7:	0f 29 85 f0 fe ff ff 	movaps %xmm0,-0x110(%rbp)
  4023ce:	0f 29 85 e0 fe ff ff 	movaps %xmm0,-0x120(%rbp)
  4023d5:	66 c7 85 10 ff ff ff 	movw   $0x0,-0xf0(%rbp)
  4023dc:	00 00 
  4023de:	4c 8d b5 60 ff ff ff 	lea    -0xa0(%rbp),%r14
  4023e5:	4c 89 f7             	mov    %r14,%rdi
  4023e8:	e8 d3 fc ff ff       	callq  4020c0 <strlen@plt>
  4023ed:	0f 10 05 aa cc 00 00 	movups 0xccaa(%rip),%xmm0        # 40f09e <_IO_stdin_used+0x9e>
  4023f4:	0f 11 84 05 60 ff ff 	movups %xmm0,-0xa0(%rbp,%rax,1)
  4023fb:	ff 
  4023fc:	48 8b 5b 08          	mov    0x8(%rbx),%rbx
  402400:	4c 89 f7             	mov    %r14,%rdi
  402403:	48 89 de             	mov    %rbx,%rsi
  402406:	e8 25 fd ff ff       	callq  402130 <strcat@plt>
  40240b:	4c 89 f7             	mov    %r14,%rdi
  40240e:	e8 ad fc ff ff       	callq  4020c0 <strlen@plt>
  402413:	c7 84 05 60 ff ff ff 	movl   $0x7478742e,-0xa0(%rbp,%rax,1)
  40241a:	2e 74 78 74 
  40241e:	c6 84 05 64 ff ff ff 	movb   $0x0,-0x9c(%rbp,%rax,1)
  402425:	00 
  402426:	4c 8d b5 20 ff ff ff 	lea    -0xe0(%rbp),%r14
  40242d:	4c 89 f7             	mov    %r14,%rdi
  402430:	e8 8b fc ff ff       	callq  4020c0 <strlen@plt>
  402435:	0f 10 05 77 cc 00 00 	movups 0xcc77(%rip),%xmm0        # 40f0b3 <_IO_stdin_used+0xb3>
  40243c:	0f 11 84 05 20 ff ff 	movups %xmm0,-0xe0(%rbp,%rax,1)
  402443:	ff 
  402444:	c7 84 05 2f ff ff ff 	movl   $0x656d69,-0xd1(%rbp,%rax,1)
  40244b:	69 6d 65 00 
  40244f:	4c 89 f7             	mov    %r14,%rdi
  402452:	48 89 de             	mov    %rbx,%rsi
  402455:	e8 d6 fc ff ff       	callq  402130 <strcat@plt>
  40245a:	4c 89 f7             	mov    %r14,%rdi
  40245d:	e8 5e fc ff ff       	callq  4020c0 <strlen@plt>
  402462:	c7 84 05 20 ff ff ff 	movl   $0x7478742e,-0xe0(%rbp,%rax,1)
  402469:	2e 74 78 74 
  40246d:	c6 84 05 24 ff ff ff 	movb   $0x0,-0xdc(%rbp,%rax,1)
  402474:	00 
  402475:	4c 8d b5 e0 fe ff ff 	lea    -0x120(%rbp),%r14
  40247c:	4c 89 f7             	mov    %r14,%rdi
  40247f:	e8 3c fc ff ff       	callq  4020c0 <strlen@plt>
  402484:	0f 10 05 3b cc 00 00 	movups 0xcc3b(%rip),%xmm0        # 40f0c6 <_IO_stdin_used+0xc6>
  40248b:	0f 11 84 05 e0 fe ff 	movups %xmm0,-0x120(%rbp,%rax,1)
  402492:	ff 
  402493:	4c 89 f7             	mov    %r14,%rdi
  402496:	48 89 de             	mov    %rbx,%rsi
  402499:	e8 92 fc ff ff       	callq  402130 <strcat@plt>
  40249e:	4c 89 f7             	mov    %r14,%rdi
  4024a1:	e8 1a fc ff ff       	callq  4020c0 <strlen@plt>
  4024a6:	c7 84 05 e0 fe ff ff 	movl   $0x7478742e,-0x120(%rbp,%rax,1)
  4024ad:	2e 74 78 74 
  4024b1:	c6 84 05 e4 fe ff ff 	movb   $0x0,-0x11c(%rbp,%rax,1)
  4024b8:	00 
  4024b9:	bf 71 f1 40 00       	mov    $0x40f171,%edi
  4024be:	e8 dd fc ff ff       	callq  4021a0 <puts@plt>
  4024c3:	bf 00 b2 9f 26       	mov    $0x269fb200,%edi
  4024c8:	e8 b3 fc ff ff       	callq  402180 <malloc@plt>
  4024cd:	48 89 c3             	mov    %rax,%rbx
  4024d0:	bf 00 b2 9f 26       	mov    $0x269fb200,%edi
  4024d5:	e8 a6 fc ff ff       	callq  402180 <malloc@plt>
  4024da:	49 89 c6             	mov    %rax,%r14
  4024dd:	bf 00 b2 9f 26       	mov    $0x269fb200,%edi
  4024e2:	e8 99 fc ff ff       	callq  402180 <malloc@plt>
  4024e7:	49 89 c7             	mov    %rax,%r15
  4024ea:	bf 88 f1 40 00       	mov    $0x40f188,%edi
  4024ef:	e8 ac fc ff ff       	callq  4021a0 <puts@plt>
  4024f4:	4c 8d 55 bc          	lea    -0x44(%rbp),%r10
  4024f8:	bf 50 72 43 00       	mov    $0x437250,%edi
  4024fd:	ba e0 29 40 00       	mov    $0x4029e0,%edx
  402502:	b9 28 23 00 00       	mov    $0x2328,%ecx
  402507:	be 07 00 00 00       	mov    $0x7,%esi
  40250c:	49 89 d8             	mov    %rbx,%r8
  40250f:	4d 89 f1             	mov    %r14,%r9
  402512:	31 c0                	xor    %eax,%eax
  402514:	68 27 23 00 00       	pushq  $0x2327
  402519:	6a 00                	pushq  $0x0
  40251b:	41 52                	push   %r10
  40251d:	41 57                	push   %r15
  40251f:	e8 cc fb ff ff       	callq  4020f0 <__kmpc_fork_call@plt>
  402524:	48 83 c4 20          	add    $0x20,%rsp
  402528:	bf b7 f1 40 00       	mov    $0x40f1b7,%edi
  40252d:	e8 6e fc ff ff       	callq  4021a0 <puts@plt>
  402532:	49 89 e4             	mov    %rsp,%r12
  402535:	48 8d 7d a8          	lea    -0x58(%rbp),%rdi
  402539:	31 f6                	xor    %esi,%esi
  40253b:	e8 a0 fb ff ff       	callq  4020e0 <gettimeofday@plt>
  402540:	48 8b 45 a8          	mov    -0x58(%rbp),%rax
  402544:	48 89 45 d0          	mov    %rax,-0x30(%rbp)
  402548:	48 8b 45 b0          	mov    -0x50(%rbp),%rax
  40254c:	48 89 45 c8          	mov    %rax,-0x38(%rbp)
  402550:	41 bd 14 00 00 00    	mov    $0x14,%r13d
  402556:	4c 89 e4             	mov    %r12,%rsp
  402559:	0f 1f 80 00 00 00 00 	nopl   0x0(%rax)
  402560:	b9 28 23 00 00       	mov    $0x2328,%ecx
  402565:	41 b8 28 23 00 00    	mov    $0x2328,%r8d
  40256b:	41 b9 28 23 00 00    	mov    $0x2328,%r9d
  402571:	bf 65 00 00 00       	mov    $0x65,%edi
  402576:	be 6f 00 00 00       	mov    $0x6f,%esi
  40257b:	ba 6f 00 00 00       	mov    $0x6f,%edx
  402580:	f2 0f 10 05 88 ca 00 	movsd  0xca88(%rip),%xmm0        # 40f010 <_IO_stdin_used+0x10>
  402587:	00 
  402588:	0f 28 c8             	movaps %xmm0,%xmm1
  40258b:	68 28 23 00 00       	pushq  $0x2328
  402590:	41 57                	push   %r15
  402592:	68 28 23 00 00       	pushq  $0x2328
  402597:	41 56                	push   %r14
  402599:	68 28 23 00 00       	pushq  $0x2328
  40259e:	53                   	push   %rbx
  40259f:	e8 bc fa ff ff       	callq  402060 <cblas_dgemm@plt>
  4025a4:	48 83 c4 30          	add    $0x30,%rsp
  4025a8:	41 ff cd             	dec    %r13d
  4025ab:	75 b3                	jne    402560 <main+0x230>
  4025ad:	49 89 e4             	mov    %rsp,%r12
  4025b0:	0f 57 c0             	xorps  %xmm0,%xmm0
  4025b3:	f2 48 0f 2a 45 c8    	cvtsi2sdq -0x38(%rbp),%xmm0
  4025b9:	f2 0f 11 45 c0       	movsd  %xmm0,-0x40(%rbp)
  4025be:	0f 57 c0             	xorps  %xmm0,%xmm0
  4025c1:	f2 48 0f 2a 45 d0    	cvtsi2sdq -0x30(%rbp),%xmm0
  4025c7:	f2 0f 11 45 c8       	movsd  %xmm0,-0x38(%rbp)
  4025cc:	49 89 e5             	mov    %rsp,%r13
  4025cf:	49 8d 7d f0          	lea    -0x10(%r13),%rdi
  4025d3:	48 89 fc             	mov    %rdi,%rsp
  4025d6:	31 f6                	xor    %esi,%esi
  4025d8:	e8 03 fb ff ff       	callq  4020e0 <gettimeofday@plt>
  4025dd:	0f 57 c0             	xorps  %xmm0,%xmm0
  4025e0:	f2 49 0f 2a 45 f0    	cvtsi2sdq -0x10(%r13),%xmm0
  4025e6:	f2 0f 11 45 d0       	movsd  %xmm0,-0x30(%rbp)
  4025eb:	0f 57 c0             	xorps  %xmm0,%xmm0
  4025ee:	f2 49 0f 2a 45 f8    	cvtsi2sdq -0x8(%r13),%xmm0
  4025f4:	f2 0f 11 45 98       	movsd  %xmm0,-0x68(%rbp)
  4025f9:	4c 89 e4             	mov    %r12,%rsp
  4025fc:	bf d4 f1 40 00       	mov    $0x40f1d4,%edi
  402601:	e8 9a fb ff ff       	callq  4021a0 <puts@plt>
  402606:	48 c7 45 a8 00 00 00 	movq   $0x0,-0x58(%rbp)
  40260d:	00 
  40260e:	48 c7 45 a0 00 00 00 	movq   $0x0,-0x60(%rbp)
  402615:	00 
  402616:	4c 8d 55 a0          	lea    -0x60(%rbp),%r10
  40261a:	4c 8d 4d bc          	lea    -0x44(%rbp),%r9
  40261e:	bf f0 71 43 00       	mov    $0x4371f0,%edi
  402623:	ba f0 27 40 00       	mov    $0x4027f0,%edx
  402628:	b9 28 23 00 00       	mov    $0x2328,%ecx
  40262d:	be 07 00 00 00       	mov    $0x7,%esi
  402632:	4d 89 f8             	mov    %r15,%r8
  402635:	31 c0                	xor    %eax,%eax
  402637:	41 52                	push   %r10
  402639:	4c 8d 55 a8          	lea    -0x58(%rbp),%r10
  40263d:	41 52                	push   %r10
  40263f:	68 27 23 00 00       	pushq  $0x2327
  402644:	6a 00                	pushq  $0x0
  402646:	e8 a5 fa ff ff       	callq  4020f0 <__kmpc_fork_call@plt>
  40264b:	48 83 c4 20          	add    $0x20,%rsp
  40264f:	bf 0a 00 00 00       	mov    $0xa,%edi
  402654:	e8 67 fb ff ff       	callq  4021c0 <putchar@plt>
  402659:	bf 40 f2 40 00       	mov    $0x40f240,%edi
  40265e:	e8 3d fb ff ff       	callq  4021a0 <puts@plt>
  402663:	f2 0f 10 45 a8       	movsd  -0x58(%rbp),%xmm0
  402668:	f2 0f 10 4d a0       	movsd  -0x60(%rbp),%xmm1
  40266d:	f2 0f 59 0d a3 c9 00 	mulsd  0xc9a3(%rip),%xmm1        # 40f018 <_IO_stdin_used+0x18>
  402674:	00 
  402675:	f2 0f 5e c1          	divsd  %xmm1,%xmm0
  402679:	bf d6 f0 40 00       	mov    $0x40f0d6,%edi
  40267e:	b0 01                	mov    $0x1,%al
  402680:	e8 bb f9 ff ff       	callq  402040 <printf@plt>
  402685:	f2 0f 10 05 93 c9 00 	movsd  0xc993(%rip),%xmm0        # 40f020 <_IO_stdin_used+0x20>
  40268c:	00 
  40268d:	bf f0 f0 40 00       	mov    $0x40f0f0,%edi
  402692:	b0 01                	mov    $0x1,%al
  402694:	e8 a7 f9 ff ff       	callq  402040 <printf@plt>
  402699:	f2 0f 10 45 98       	movsd  -0x68(%rbp),%xmm0
  40269e:	f2 0f 5c 45 c0       	subsd  -0x40(%rbp),%xmm0
  4026a3:	f2 0f 59 05 5d c9 00 	mulsd  0xc95d(%rip),%xmm0        # 40f008 <_IO_stdin_used+0x8>
  4026aa:	00 
  4026ab:	66 0f 28 c8          	movapd %xmm0,%xmm1
  4026af:	f2 0f 10 45 d0       	movsd  -0x30(%rbp),%xmm0
  4026b4:	f2 0f 5c 45 c8       	subsd  -0x38(%rbp),%xmm0
  4026b9:	f2 0f 58 c1          	addsd  %xmm1,%xmm0
  4026bd:	f2 0f 11 45 d0       	movsd  %xmm0,-0x30(%rbp)
  4026c2:	bf 0d f1 40 00       	mov    $0x40f10d,%edi
  4026c7:	b0 01                	mov    $0x1,%al
  4026c9:	e8 72 f9 ff ff       	callq  402040 <printf@plt>
  4026ce:	48 8d bd 60 ff ff ff 	lea    -0xa0(%rbp),%rdi
  4026d5:	be 9e 34 43 00       	mov    $0x43349e,%esi
  4026da:	e8 01 fb ff ff       	callq  4021e0 <fopen@plt>
  4026df:	49 89 c4             	mov    %rax,%r12
  4026e2:	48 8d bd 20 ff ff ff 	lea    -0xe0(%rbp),%rdi
  4026e9:	be 9e 34 43 00       	mov    $0x43349e,%esi
  4026ee:	e8 ed fa ff ff       	callq  4021e0 <fopen@plt>
  4026f3:	49 89 c5             	mov    %rax,%r13
  4026f6:	48 8d bd e0 fe ff ff 	lea    -0x120(%rbp),%rdi
  4026fd:	be 9e 34 43 00       	mov    $0x43349e,%esi
  402702:	e8 d9 fa ff ff       	callq  4021e0 <fopen@plt>
  402707:	48 89 45 c8          	mov    %rax,-0x38(%rbp)
  40270b:	bf f0 f1 40 00       	mov    $0x40f1f0,%edi
  402710:	e8 8b fa ff ff       	callq  4021a0 <puts@plt>
  402715:	f2 0f 10 05 0b c9 00 	movsd  0xc90b(%rip),%xmm0        # 40f028 <_IO_stdin_used+0x28>
  40271c:	00 
  40271d:	bf 2f f1 40 00       	mov    $0x40f12f,%edi
  402722:	b0 01                	mov    $0x1,%al
  402724:	e8 17 f9 ff ff       	callq  402040 <printf@plt>
  402729:	f2 0f 10 05 ff c8 00 	movsd  0xc8ff(%rip),%xmm0        # 40f030 <_IO_stdin_used+0x30>
  402730:	00 
  402731:	f2 0f 5e 45 d0       	divsd  -0x30(%rbp),%xmm0
  402736:	f2 0f 11 45 c0       	movsd  %xmm0,-0x40(%rbp)
  40273b:	bf 49 f1 40 00       	mov    $0x40f149,%edi
  402740:	b0 01                	mov    $0x1,%al
  402742:	e8 f9 f8 ff ff       	callq  402040 <printf@plt>
  402747:	be 68 f1 40 00       	mov    $0x40f168,%esi
  40274c:	4c 89 e7             	mov    %r12,%rdi
  40274f:	f2 0f 10 45 c0       	movsd  -0x40(%rbp),%xmm0
  402754:	b0 01                	mov    $0x1,%al
  402756:	e8 15 f9 ff ff       	callq  402070 <fprintf@plt>
  40275b:	be 68 f1 40 00       	mov    $0x40f168,%esi
  402760:	4c 89 ef             	mov    %r13,%rdi
  402763:	f2 0f 10 45 d0       	movsd  -0x30(%rbp),%xmm0
  402768:	b0 01                	mov    $0x1,%al
  40276a:	e8 01 f9 ff ff       	callq  402070 <fprintf@plt>
  40276f:	bf 3f f2 40 00       	mov    $0x40f23f,%edi
  402774:	e8 27 fa ff ff       	callq  4021a0 <puts@plt>
  402779:	bf 0a 00 00 00       	mov    $0xa,%edi
  40277e:	e8 3d fa ff ff       	callq  4021c0 <putchar@plt>
  402783:	4c 89 e7             	mov    %r12,%rdi
  402786:	e8 45 f9 ff ff       	callq  4020d0 <fclose@plt>
  40278b:	4c 89 ef             	mov    %r13,%rdi
  40278e:	e8 3d f9 ff ff       	callq  4020d0 <fclose@plt>
  402793:	48 8b 7d c8          	mov    -0x38(%rbp),%rdi
  402797:	e8 34 f9 ff ff       	callq  4020d0 <fclose@plt>
  40279c:	48 89 df             	mov    %rbx,%rdi
  40279f:	e8 ac f8 ff ff       	callq  402050 <free@plt>
  4027a4:	4c 89 f7             	mov    %r14,%rdi
  4027a7:	e8 a4 f8 ff ff       	callq  402050 <free@plt>
  4027ac:	4c 89 ff             	mov    %r15,%rdi
  4027af:	e8 9c f8 ff ff       	callq  402050 <free@plt>
  4027b4:	31 c0                	xor    %eax,%eax
  4027b6:	48 8d 65 d8          	lea    -0x28(%rbp),%rsp
  4027ba:	5b                   	pop    %rbx
  4027bb:	41 5c                	pop    %r12
  4027bd:	41 5d                	pop    %r13
  4027bf:	41 5e                	pop    %r14
  4027c1:	41 5f                	pop    %r15
  4027c3:	5d                   	pop    %rbp
  4027c4:	c3                   	retq   
  4027c5:	66 66 2e 0f 1f 84 00 	data16 nopw %cs:0x0(%rax,%rax,1)
  4027cc:	00 00 00 00 

00000000004027d0 <main_tree_reduce_15>:
  4027d0:	f2 0f 10 06          	movsd  (%rsi),%xmm0
  4027d4:	f2 0f 58 07          	addsd  (%rdi),%xmm0
  4027d8:	f2 0f 11 07          	movsd  %xmm0,(%rdi)
  4027dc:	f2 0f 10 46 08       	movsd  0x8(%rsi),%xmm0
  4027e1:	f2 0f 58 47 08       	addsd  0x8(%rdi),%xmm0
  4027e6:	f2 0f 11 47 08       	movsd  %xmm0,0x8(%rdi)
  4027eb:	c3                   	retq   
  4027ec:	0f 1f 40 00          	nopl   0x0(%rax)

00000000004027f0 <main.extracted>:
  4027f0:	55                   	push   %rbp
  4027f1:	41 57                	push   %r15
  4027f3:	41 56                	push   %r14
  4027f5:	53                   	push   %rbx
  4027f6:	48 83 ec 28          	sub    $0x28,%rsp
  4027fa:	4d 89 c6             	mov    %r8,%r14
  4027fd:	49 89 cf             	mov    %rcx,%r15
  402800:	48 89 fb             	mov    %rdi,%rbx
  402803:	c7 44 24 0c 00 00 00 	movl   $0x0,0xc(%rsp)
  40280a:	00 
  40280b:	8b 2f                	mov    (%rdi),%ebp
  40280d:	c7 44 24 04 00 00 00 	movl   $0x0,0x4(%rsp)
  402814:	00 
  402815:	c7 04 24 27 23 00 00 	movl   $0x2327,(%rsp)
  40281c:	c7 44 24 08 01 00 00 	movl   $0x1,0x8(%rsp)
  402823:	00 
  402824:	48 83 ec 08          	sub    $0x8,%rsp
  402828:	48 8d 44 24 10       	lea    0x10(%rsp),%rax
  40282d:	48 8d 4c 24 14       	lea    0x14(%rsp),%rcx
  402832:	4c 8d 44 24 0c       	lea    0xc(%rsp),%r8
  402837:	4c 8d 4c 24 08       	lea    0x8(%rsp),%r9
  40283c:	bf 10 71 43 00       	mov    $0x437110,%edi
  402841:	89 ee                	mov    %ebp,%esi
  402843:	ba 22 00 00 00       	mov    $0x22,%edx
  402848:	6a 01                	pushq  $0x1
  40284a:	6a 01                	pushq  $0x1
  40284c:	50                   	push   %rax
  40284d:	e8 0e f9 ff ff       	callq  402160 <__kmpc_for_static_init_4@plt>
  402852:	48 83 c4 20          	add    $0x20,%rsp
  402856:	8b 4c 24 04          	mov    0x4(%rsp),%ecx
  40285a:	8b 14 24             	mov    (%rsp),%edx
  40285d:	66 0f 57 c0          	xorpd  %xmm0,%xmm0
  402861:	39 d1                	cmp    %edx,%ecx
  402863:	0f 87 a1 00 00 00    	ja     40290a <main.extracted+0x11a>
  402869:	48 8d 42 01          	lea    0x1(%rdx),%rax
  40286d:	39 c8                	cmp    %ecx,%eax
  40286f:	75 37                	jne    4028a8 <main.extracted+0xb8>
  402871:	48 69 c1 28 23 00 00 	imul   $0x2328,%rcx,%rax
  402878:	48 69 ca 28 23 00 00 	imul   $0x2328,%rdx,%rcx
  40287f:	48 81 c1 28 23 00 00 	add    $0x2328,%rcx
  402886:	66 0f 28 0d c2 c7 00 	movapd 0xc7c2(%rip),%xmm1        # 40f050 <_IO_stdin_used+0x50>
  40288d:	00 
  40288e:	66 90                	xchg   %ax,%ax
  402890:	66 0f 28 d1          	movapd %xmm1,%xmm2
  402894:	66 41 0f 12 14 c7    	movlpd (%r15,%rax,8),%xmm2
  40289a:	66 0f 58 c2          	addpd  %xmm2,%xmm0
  40289e:	48 ff c0             	inc    %rax
  4028a1:	48 39 c1             	cmp    %rax,%rcx
  4028a4:	75 ea                	jne    402890 <main.extracted+0xa0>
  4028a6:	eb 5b                	jmp    402903 <main.extracted+0x113>
  4028a8:	48 29 c8             	sub    %rcx,%rax
  4028ab:	48 69 c0 28 23 00 00 	imul   $0x2328,%rax,%rax
  4028b2:	48 69 c9 40 19 01 00 	imul   $0x11940,%rcx,%rcx
  4028b9:	49 01 cf             	add    %rcx,%r15
  4028bc:	66 0f 57 c9          	xorpd  %xmm1,%xmm1
  4028c0:	31 c9                	xor    %ecx,%ecx
  4028c2:	66 0f 28 05 76 c7 00 	movapd 0xc776(%rip),%xmm0        # 40f040 <_IO_stdin_used+0x40>
  4028c9:	00 
  4028ca:	66 0f 57 d2          	xorpd  %xmm2,%xmm2
  4028ce:	66 90                	xchg   %ax,%ax
  4028d0:	66 41 0f 10 1c cf    	movupd (%r15,%rcx,8),%xmm3
  4028d6:	66 0f 58 d3          	addpd  %xmm3,%xmm2
  4028da:	66 0f 58 c8          	addpd  %xmm0,%xmm1
  4028de:	48 83 c1 02          	add    $0x2,%rcx
  4028e2:	48 39 c1             	cmp    %rax,%rcx
  4028e5:	7c e9                	jl     4028d0 <main.extracted+0xe0>
  4028e7:	66 0f 28 c2          	movapd %xmm2,%xmm0
  4028eb:	66 0f 15 c2          	unpckhpd %xmm2,%xmm0
  4028ef:	f2 0f 58 c2          	addsd  %xmm2,%xmm0
  4028f3:	66 0f 28 d1          	movapd %xmm1,%xmm2
  4028f7:	66 0f 15 d1          	unpckhpd %xmm1,%xmm2
  4028fb:	f2 0f 58 d1          	addsd  %xmm1,%xmm2
  4028ff:	66 0f 14 c2          	unpcklpd %xmm2,%xmm0
  402903:	41 c7 06 28 23 00 00 	movl   $0x2328,(%r14)
  40290a:	4c 8b 74 24 60       	mov    0x60(%rsp),%r14
  40290f:	4c 8b 7c 24 58       	mov    0x58(%rsp),%r15
  402914:	66 0f 29 44 24 10    	movapd %xmm0,0x10(%rsp)
  40291a:	bf 30 71 43 00       	mov    $0x437130,%edi
  40291f:	89 ee                	mov    %ebp,%esi
  402921:	e8 8a f8 ff ff       	callq  4021b0 <__kmpc_for_static_fini@plt>
  402926:	8b 33                	mov    (%rbx),%esi
  402928:	48 83 ec 08          	sub    $0x8,%rsp
  40292c:	48 c7 c0 d0 81 44 00 	mov    $0x4481d0,%rax
  402933:	4c 8d 44 24 18       	lea    0x18(%rsp),%r8
  402938:	bf 90 71 43 00       	mov    $0x437190,%edi
  40293d:	41 b9 d0 27 40 00    	mov    $0x4027d0,%r9d
  402943:	ba 02 00 00 00       	mov    $0x2,%edx
  402948:	b9 10 00 00 00       	mov    $0x10,%ecx
  40294d:	50                   	push   %rax
  40294e:	e8 dd f6 ff ff       	callq  402030 <__kmpc_reduce@plt>
  402953:	48 83 c4 10          	add    $0x10,%rsp
  402957:	83 f8 02             	cmp    $0x2,%eax
  40295a:	74 35                	je     402991 <main.extracted+0x1a1>
  40295c:	83 f8 01             	cmp    $0x1,%eax
  40295f:	75 6d                	jne    4029ce <main.extracted+0x1de>
  402961:	f2 0f 10 44 24 10    	movsd  0x10(%rsp),%xmm0
  402967:	f2 41 0f 58 07       	addsd  (%r15),%xmm0
  40296c:	f2 41 0f 11 07       	movsd  %xmm0,(%r15)
  402971:	f2 0f 10 44 24 18    	movsd  0x18(%rsp),%xmm0
  402977:	f2 41 0f 58 06       	addsd  (%r14),%xmm0
  40297c:	f2 41 0f 11 06       	movsd  %xmm0,(%r14)
  402981:	8b 33                	mov    (%rbx),%esi
  402983:	48 c7 c2 d0 81 44 00 	mov    $0x4481d0,%rdx
  40298a:	bf b0 71 43 00       	mov    $0x4371b0,%edi
  40298f:	eb 38                	jmp    4029c9 <main.extracted+0x1d9>
  402991:	f2 0f 10 44 24 10    	movsd  0x10(%rsp),%xmm0
  402997:	8b 33                	mov    (%rbx),%esi
  402999:	bf 50 71 43 00       	mov    $0x437150,%edi
  40299e:	4c 89 fa             	mov    %r15,%rdx
  4029a1:	e8 7a f7 ff ff       	callq  402120 <__kmpc_atomic_float8_add@plt>
  4029a6:	f2 0f 10 44 24 18    	movsd  0x18(%rsp),%xmm0
  4029ac:	8b 33                	mov    (%rbx),%esi
  4029ae:	bf 70 71 43 00       	mov    $0x437170,%edi
  4029b3:	4c 89 f2             	mov    %r14,%rdx
  4029b6:	e8 65 f7 ff ff       	callq  402120 <__kmpc_atomic_float8_add@plt>
  4029bb:	8b 33                	mov    (%rbx),%esi
  4029bd:	48 c7 c2 d0 81 44 00 	mov    $0x4481d0,%rdx
  4029c4:	bf d0 71 43 00       	mov    $0x4371d0,%edi
  4029c9:	e8 a2 f7 ff ff       	callq  402170 <__kmpc_end_reduce@plt>
  4029ce:	48 83 c4 28          	add    $0x28,%rsp
  4029d2:	5b                   	pop    %rbx
  4029d3:	41 5e                	pop    %r14
  4029d5:	41 5f                	pop    %r15
  4029d7:	5d                   	pop    %rbp
  4029d8:	c3                   	retq   
  4029d9:	0f 1f 80 00 00 00 00 	nopl   0x0(%rax)

00000000004029e0 <main.extracted.46>:
  4029e0:	41 57                	push   %r15
  4029e2:	41 56                	push   %r14
  4029e4:	41 55                	push   %r13
  4029e6:	41 54                	push   %r12
  4029e8:	53                   	push   %rbx
  4029e9:	48 83 ec 10          	sub    $0x10,%rsp
  4029ed:	4d 89 ce             	mov    %r9,%r14
  4029f0:	4d 89 c7             	mov    %r8,%r15
  4029f3:	49 89 cc             	mov    %rcx,%r12
  4029f6:	4c 8b 6c 24 40       	mov    0x40(%rsp),%r13
  4029fb:	c7 44 24 0c 00 00 00 	movl   $0x0,0xc(%rsp)
  402a02:	00 
  402a03:	8b 1f                	mov    (%rdi),%ebx
  402a05:	c7 44 24 04 00 00 00 	movl   $0x0,0x4(%rsp)
  402a0c:	00 
  402a0d:	c7 04 24 27 23 00 00 	movl   $0x2327,(%rsp)
  402a14:	c7 44 24 08 01 00 00 	movl   $0x1,0x8(%rsp)
  402a1b:	00 
  402a1c:	48 83 ec 08          	sub    $0x8,%rsp
  402a20:	48 8d 44 24 10       	lea    0x10(%rsp),%rax
  402a25:	48 8d 4c 24 14       	lea    0x14(%rsp),%rcx
  402a2a:	4c 8d 44 24 0c       	lea    0xc(%rsp),%r8
  402a2f:	4c 8d 4c 24 08       	lea    0x8(%rsp),%r9
  402a34:	bf 10 72 43 00       	mov    $0x437210,%edi
  402a39:	89 de                	mov    %ebx,%esi
  402a3b:	ba 22 00 00 00       	mov    $0x22,%edx
  402a40:	6a 01                	pushq  $0x1
  402a42:	6a 01                	pushq  $0x1
  402a44:	50                   	push   %rax
  402a45:	e8 16 f7 ff ff       	callq  402160 <__kmpc_for_static_init_4@plt>
  402a4a:	48 83 c4 20          	add    $0x20,%rsp
  402a4e:	8b 54 24 04          	mov    0x4(%rsp),%edx
  402a52:	8b 0c 24             	mov    (%rsp),%ecx
  402a55:	39 ca                	cmp    %ecx,%edx
  402a57:	0f 87 99 00 00 00    	ja     402af6 <main.extracted.46+0x116>
  402a5d:	8d 41 01             	lea    0x1(%rcx),%eax
  402a60:	39 d0                	cmp    %edx,%eax
  402a62:	0f 84 86 00 00 00    	je     402aee <main.extracted.46+0x10e>
  402a68:	48 69 c2 40 19 01 00 	imul   $0x11940,%rdx,%rax
  402a6f:	48 83 c8 30          	or     $0x30,%rax
  402a73:	48 69 c9 65 04 00 00 	imul   $0x465,%rcx,%rcx
  402a7a:	48 69 d2 65 04 00 00 	imul   $0x465,%rdx,%rdx
  402a81:	48 29 d1             	sub    %rdx,%rcx
  402a84:	48 81 c1 65 04 00 00 	add    $0x465,%rcx
  402a8b:	0f 28 05 ce c5 00 00 	movaps 0xc5ce(%rip),%xmm0        # 40f060 <_IO_stdin_used+0x60>
  402a92:	0f 28 0d d7 c5 00 00 	movaps 0xc5d7(%rip),%xmm1        # 40f070 <_IO_stdin_used+0x70>
  402a99:	0f 28 15 a0 c5 00 00 	movaps 0xc5a0(%rip),%xmm2        # 40f040 <_IO_stdin_used+0x40>
  402aa0:	41 0f 11 44 04 d0    	movups %xmm0,-0x30(%r12,%rax,1)
  402aa6:	41 0f 11 4c 07 d0    	movups %xmm1,-0x30(%r15,%rax,1)
  402aac:	41 0f 11 54 06 d0    	movups %xmm2,-0x30(%r14,%rax,1)
  402ab2:	41 0f 11 44 04 e0    	movups %xmm0,-0x20(%r12,%rax,1)
  402ab8:	41 0f 11 4c 07 e0    	movups %xmm1,-0x20(%r15,%rax,1)
  402abe:	41 0f 11 54 06 e0    	movups %xmm2,-0x20(%r14,%rax,1)
  402ac4:	41 0f 11 44 04 f0    	movups %xmm0,-0x10(%r12,%rax,1)
  402aca:	41 0f 11 4c 07 f0    	movups %xmm1,-0x10(%r15,%rax,1)
  402ad0:	41 0f 11 54 06 f0    	movups %xmm2,-0x10(%r14,%rax,1)
  402ad6:	41 0f 11 04 04       	movups %xmm0,(%r12,%rax,1)
  402adb:	41 0f 11 0c 07       	movups %xmm1,(%r15,%rax,1)
  402ae0:	41 0f 11 14 06       	movups %xmm2,(%r14,%rax,1)
  402ae5:	48 83 c0 40          	add    $0x40,%rax
  402ae9:	48 ff c9             	dec    %rcx
  402aec:	75 b2                	jne    402aa0 <main.extracted.46+0xc0>
  402aee:	41 c7 45 00 28 23 00 	movl   $0x2328,0x0(%r13)
  402af5:	00 
  402af6:	bf 30 72 43 00       	mov    $0x437230,%edi
  402afb:	89 de                	mov    %ebx,%esi
  402afd:	48 83 c4 10          	add    $0x10,%rsp
  402b01:	5b                   	pop    %rbx
  402b02:	41 5c                	pop    %r12
  402b04:	41 5d                	pop    %r13
  402b06:	41 5e                	pop    %r14
  402b08:	41 5f                	pop    %r15
  402b0a:	e9 a1 f6 ff ff       	jmpq   4021b0 <__kmpc_for_static_fini@plt>
  402b0f:	90                   	nop

0000000000402b10 <acos>:
  402b10:	f3 0f 1e fa          	endbr64 
  402b14:	48 c7 c0 c0 72 43 00 	mov    $0x4372c0,%rax
  402b1b:	ff 20                	jmpq   *(%rax)
  402b1d:	0f 1f 00             	nopl   (%rax)

0000000000402b20 <atan2>:
  402b20:	f3 0f 1e fa          	endbr64 
  402b24:	48 c7 c0 00 73 43 00 	mov    $0x437300,%rax
  402b2b:	48 8b 00             	mov    (%rax),%rax
  402b2e:	ff e0                	jmpq   *%rax

0000000000402b30 <ceil>:
  402b30:	f3 0f 1e fa          	endbr64 
  402b34:	48 c7 c0 40 73 43 00 	mov    $0x437340,%rax
  402b3b:	ff 20                	jmpq   *(%rax)
  402b3d:	0f 1f 00             	nopl   (%rax)

0000000000402b40 <ceilf>:
  402b40:	f3 0f 1e fa          	endbr64 
  402b44:	48 c7 c0 80 73 43 00 	mov    $0x437380,%rax
  402b4b:	ff 20                	jmpq   *(%rax)
  402b4d:	0f 1f 00             	nopl   (%rax)

0000000000402b50 <cos>:
  402b50:	f3 0f 1e fa          	endbr64 
  402b54:	48 c7 c0 c0 73 43 00 	mov    $0x4373c0,%rax
  402b5b:	ff 20                	jmpq   *(%rax)
  402b5d:	0f 1f 00             	nopl   (%rax)

0000000000402b60 <exp>:
  402b60:	f3 0f 1e fa          	endbr64 
  402b64:	48 c7 c0 00 74 43 00 	mov    $0x437400,%rax
  402b6b:	ff 20                	jmpq   *(%rax)
  402b6d:	0f 1f 00             	nopl   (%rax)

0000000000402b70 <expf>:
  402b70:	f3 0f 1e fa          	endbr64 
  402b74:	48 c7 c0 40 74 43 00 	mov    $0x437440,%rax
  402b7b:	ff 20                	jmpq   *(%rax)
  402b7d:	0f 1f 00             	nopl   (%rax)

0000000000402b80 <fabs>:
  402b80:	f3 0f 1e fa          	endbr64 
  402b84:	e9 87 00 00 00       	jmpq   402c10 <__libm_fabs_ex>
  402b89:	0f 1f 80 00 00 00 00 	nopl   0x0(%rax)

0000000000402b90 <floor>:
  402b90:	f3 0f 1e fa          	endbr64 
  402b94:	48 c7 c0 80 74 43 00 	mov    $0x437480,%rax
  402b9b:	ff 20                	jmpq   *(%rax)
  402b9d:	0f 1f 00             	nopl   (%rax)

0000000000402ba0 <log>:
  402ba0:	f3 0f 1e fa          	endbr64 
  402ba4:	48 c7 c0 c0 74 43 00 	mov    $0x4374c0,%rax
  402bab:	ff 20                	jmpq   *(%rax)
  402bad:	0f 1f 00             	nopl   (%rax)

0000000000402bb0 <log10>:
  402bb0:	f3 0f 1e fa          	endbr64 
  402bb4:	48 c7 c0 00 75 43 00 	mov    $0x437500,%rax
  402bbb:	ff 20                	jmpq   *(%rax)
  402bbd:	0f 1f 00             	nopl   (%rax)

0000000000402bc0 <logf>:
  402bc0:	f3 0f 1e fa          	endbr64 
  402bc4:	48 c7 c0 40 75 43 00 	mov    $0x437540,%rax
  402bcb:	ff 20                	jmpq   *(%rax)
  402bcd:	0f 1f 00             	nopl   (%rax)

0000000000402bd0 <pow>:
  402bd0:	f3 0f 1e fa          	endbr64 
  402bd4:	48 c7 c0 80 75 43 00 	mov    $0x437580,%rax
  402bdb:	48 8b 00             	mov    (%rax),%rax
  402bde:	ff e0                	jmpq   *%rax

0000000000402be0 <sin>:
  402be0:	f3 0f 1e fa          	endbr64 
  402be4:	48 c7 c0 c0 75 43 00 	mov    $0x4375c0,%rax
  402beb:	ff 20                	jmpq   *(%rax)
  402bed:	0f 1f 00             	nopl   (%rax)

0000000000402bf0 <sqrt>:
  402bf0:	f3 0f 1e fa          	endbr64 
  402bf4:	e9 37 00 00 00       	jmpq   402c30 <__libm_sqrt_ex>
  402bf9:	0f 1f 80 00 00 00 00 	nopl   0x0(%rax)

0000000000402c00 <sqrtf>:
  402c00:	f3 0f 1e fa          	endbr64 
  402c04:	48 c7 c0 00 76 43 00 	mov    $0x437600,%rax
  402c0b:	ff 20                	jmpq   *(%rax)
  402c0d:	0f 1f 00             	nopl   (%rax)

0000000000402c10 <__libm_fabs_ex>:
  402c10:	f3 0f 1e fa          	endbr64 
  402c14:	f3 0f 7e 0d 84 c6 00 	movq   0xc684(%rip),%xmm1        # 40f2a0 <SGNMASK>
  402c1b:	00 
  402c1c:	f3 0f 7e 15 8c c6 00 	movq   0xc68c(%rip),%xmm2        # 40f2b0 <ONE>
  402c23:	00 
  402c24:	66 0f 54 c1          	andpd  %xmm1,%xmm0
  402c28:	f2 0f 59 c2          	mulsd  %xmm2,%xmm0
  402c2c:	c3                   	retq   
  402c2d:	0f 1f 00             	nopl   (%rax)

0000000000402c30 <__libm_sqrt_ex>:
  402c30:	f3 0f 1e fa          	endbr64 
  402c34:	48 83 ec 18          	sub    $0x18,%rsp
  402c38:	f2 0f 11 44 24 08    	movsd  %xmm0,0x8(%rsp)
  402c3e:	f3 0f 7e d0          	movq   %xmm0,%xmm2
  402c42:	66 0f 57 c9          	xorpd  %xmm1,%xmm1
  402c46:	f2 0f 51 c0          	sqrtsd %xmm0,%xmm0
  402c4a:	66 0f d6 44 24 10    	movq   %xmm0,0x10(%rsp)
  402c50:	66 0f 2e d1          	ucomisd %xmm1,%xmm2
  402c54:	73 1c                	jae    402c72 <__libm_sqrt_ex+0x42>
  402c56:	7a 1a                	jp     402c72 <__libm_sqrt_ex+0x42>
  402c58:	f2 0f 10 4c 24 08    	movsd  0x8(%rsp),%xmm1
  402c5e:	f2 0f 10 54 24 08    	movsd  0x8(%rsp),%xmm2
  402c64:	b9 31 00 00 00       	mov    $0x31,%ecx
  402c69:	66 0f 6e d9          	movd   %ecx,%xmm3
  402c6d:	e8 2e 0a 00 00       	callq  4036a0 <__libm_error_support_wrapper_x64>
  402c72:	f2 0f 11 44 24 10    	movsd  %xmm0,0x10(%rsp)
  402c78:	48 83 c4 18          	add    $0x18,%rsp
  402c7c:	c3                   	retq   
  402c7d:	0f 1f 00             	nopl   (%rax)

0000000000402c80 <__libm_setusermatherrf>:
  402c80:	f3 0f 1e fa          	endbr64 
  402c84:	48 85 ff             	test   %rdi,%rdi
  402c87:	75 07                	jne    402c90 <__libm_setusermatherrf+0x10>
  402c89:	48 c7 c7 d0 3b 40 00 	mov    $0x403bd0,%rdi
  402c90:	48 c7 c0 70 72 43 00 	mov    $0x437270,%rax
  402c97:	48 89 38             	mov    %rdi,(%rax)
  402c9a:	c3                   	retq   
  402c9b:	0f 1f 44 00 00       	nopl   0x0(%rax,%rax,1)

0000000000402ca0 <__libm_setusermatherr>:
  402ca0:	f3 0f 1e fa          	endbr64 
  402ca4:	48 85 ff             	test   %rdi,%rdi
  402ca7:	75 07                	jne    402cb0 <__libm_setusermatherr+0x10>
  402ca9:	48 c7 c7 c0 3b 40 00 	mov    $0x403bc0,%rdi
  402cb0:	48 c7 c0 78 72 43 00 	mov    $0x437278,%rax
  402cb7:	48 89 38             	mov    %rdi,(%rax)
  402cba:	c3                   	retq   
  402cbb:	0f 1f 44 00 00       	nopl   0x0(%rax,%rax,1)

0000000000402cc0 <__libm_setusermatherrl>:
  402cc0:	f3 0f 1e fa          	endbr64 
  402cc4:	48 85 ff             	test   %rdi,%rdi
  402cc7:	75 07                	jne    402cd0 <__libm_setusermatherrl+0x10>
  402cc9:	48 c7 c7 e0 3b 40 00 	mov    $0x403be0,%rdi
  402cd0:	48 c7 c0 80 72 43 00 	mov    $0x437280,%rax
  402cd7:	48 89 38             	mov    %rdi,(%rax)
  402cda:	c3                   	retq   
  402cdb:	0f 1f 44 00 00       	nopl   0x0(%rax,%rax,1)

0000000000402ce0 <__libm_copy_value>:
  402ce0:	f3 0f 1e fa          	endbr64 
  402ce4:	85 d2                	test   %edx,%edx
  402ce6:	7e 38                	jle    402d20 <__libm_copy_value+0x40>
  402ce8:	89 d0                	mov    %edx,%eax
  402cea:	48 8d 0c 46          	lea    (%rsi,%rax,2),%rcx
  402cee:	48 83 c1 fe          	add    $0xfffffffffffffffe,%rcx
  402cf2:	48 39 f9             	cmp    %rdi,%rcx
  402cf5:	72 2a                	jb     402d21 <__libm_copy_value+0x41>
  402cf7:	48 8d 0c 47          	lea    (%rdi,%rax,2),%rcx
  402cfb:	48 83 c1 fe          	add    $0xfffffffffffffffe,%rcx
  402cff:	48 39 f1             	cmp    %rsi,%rcx
  402d02:	72 1d                	jb     402d21 <__libm_copy_value+0x41>
  402d04:	31 c9                	xor    %ecx,%ecx
  402d06:	66 2e 0f 1f 84 00 00 	nopw   %cs:0x0(%rax,%rax,1)
  402d0d:	00 00 00 
  402d10:	0f b7 14 4e          	movzwl (%rsi,%rcx,2),%edx
  402d14:	66 89 14 4f          	mov    %dx,(%rdi,%rcx,2)
  402d18:	48 ff c1             	inc    %rcx
  402d1b:	48 39 c8             	cmp    %rcx,%rax
  402d1e:	75 f0                	jne    402d10 <__libm_copy_value+0x30>
  402d20:	c3                   	retq   
  402d21:	83 fa 08             	cmp    $0x8,%edx
  402d24:	72 2b                	jb     402d51 <__libm_copy_value+0x71>
  402d26:	89 c1                	mov    %eax,%ecx
  402d28:	c1 e9 03             	shr    $0x3,%ecx
  402d2b:	48 c1 e1 04          	shl    $0x4,%rcx
  402d2f:	31 d2                	xor    %edx,%edx
  402d31:	66 66 66 66 66 66 2e 	data16 data16 data16 data16 data16 nopw %cs:0x0(%rax,%rax,1)
  402d38:	0f 1f 84 00 00 00 00 
  402d3f:	00 
  402d40:	0f 10 04 16          	movups (%rsi,%rdx,1),%xmm0
  402d44:	0f 11 04 17          	movups %xmm0,(%rdi,%rdx,1)
  402d48:	48 83 c2 10          	add    $0x10,%rdx
  402d4c:	48 39 d1             	cmp    %rdx,%rcx
  402d4f:	75 ef                	jne    402d40 <__libm_copy_value+0x60>
  402d51:	89 c1                	mov    %eax,%ecx
  402d53:	83 e1 07             	and    $0x7,%ecx
  402d56:	48 ff c9             	dec    %rcx
  402d59:	48 83 f9 06          	cmp    $0x6,%rcx
  402d5d:	77 c1                	ja     402d20 <__libm_copy_value+0x40>
  402d5f:	83 e0 f8             	and    $0xfffffff8,%eax
  402d62:	48 8d 15 57 c5 00 00 	lea    0xc557(%rip),%rdx        # 40f2c0 <ONE+0x10>
  402d69:	48 63 0c 8a          	movslq (%rdx,%rcx,4),%rcx
  402d6d:	48 01 d1             	add    %rdx,%rcx
  402d70:	3e ff e1             	notrack jmpq *%rcx
  402d73:	0f b7 4c 46 0c       	movzwl 0xc(%rsi,%rax,2),%ecx
  402d78:	66 89 4c 47 0c       	mov    %cx,0xc(%rdi,%rax,2)
  402d7d:	0f b7 4c 46 0a       	movzwl 0xa(%rsi,%rax,2),%ecx
  402d82:	66 89 4c 47 0a       	mov    %cx,0xa(%rdi,%rax,2)
  402d87:	0f b7 4c 46 08       	movzwl 0x8(%rsi,%rax,2),%ecx
  402d8c:	66 89 4c 47 08       	mov    %cx,0x8(%rdi,%rax,2)
  402d91:	0f b7 4c 46 06       	movzwl 0x6(%rsi,%rax,2),%ecx
  402d96:	66 89 4c 47 06       	mov    %cx,0x6(%rdi,%rax,2)
  402d9b:	0f b7 4c 46 04       	movzwl 0x4(%rsi,%rax,2),%ecx
  402da0:	66 89 4c 47 04       	mov    %cx,0x4(%rdi,%rax,2)
  402da5:	0f b7 4c 46 02       	movzwl 0x2(%rsi,%rax,2),%ecx
  402daa:	66 89 4c 47 02       	mov    %cx,0x2(%rdi,%rax,2)
  402daf:	0f b7 0c 46          	movzwl (%rsi,%rax,2),%ecx
  402db3:	66 89 0c 47          	mov    %cx,(%rdi,%rax,2)
  402db7:	c3                   	retq   
  402db8:	0f 1f 84 00 00 00 00 	nopl   0x0(%rax,%rax,1)
  402dbf:	00 

0000000000402dc0 <__libm_error_support>:
  402dc0:	f3 0f 1e fa          	endbr64 
  402dc4:	55                   	push   %rbp
  402dc5:	41 57                	push   %r15
  402dc7:	41 56                	push   %r14
  402dc9:	41 55                	push   %r13
  402dcb:	41 54                	push   %r12
  402dcd:	53                   	push   %rbx
  402dce:	48 81 ec d8 00 00 00 	sub    $0xd8,%rsp
  402dd5:	64 48 8b 04 25 28 00 	mov    %fs:0x28,%rax
  402ddc:	00 00 
  402dde:	48 89 84 24 d0 00 00 	mov    %rax,0xd0(%rsp)
  402de5:	00 
  402de6:	48 c7 c0 70 72 43 00 	mov    $0x437270,%rax
  402ded:	48 8b 00             	mov    (%rax),%rax
  402df0:	48 89 44 24 50       	mov    %rax,0x50(%rsp)
  402df5:	48 c7 c0 78 72 43 00 	mov    $0x437278,%rax
  402dfc:	48 8b 00             	mov    (%rax),%rax
  402dff:	48 89 44 24 58       	mov    %rax,0x58(%rsp)
  402e04:	48 c7 c0 80 72 43 00 	mov    $0x437280,%rax
  402e0b:	48 8b 00             	mov    (%rax),%rax
  402e0e:	48 89 44 24 60       	mov    %rax,0x60(%rsp)
  402e13:	48 c7 44 24 68 00 00 	movq   $0x0,0x68(%rsp)
  402e1a:	00 00 
  402e1c:	48 c7 c0 68 72 43 00 	mov    $0x437268,%rax
  402e23:	8b 00                	mov    (%rax),%eax
  402e25:	83 f8 ff             	cmp    $0xffffffff,%eax
  402e28:	0f 84 cd 05 00 00    	je     4033fb <__libm_error_support+0x63b>
  402e2e:	48 89 d3             	mov    %rdx,%rbx
  402e31:	49 89 f6             	mov    %rsi,%r14
  402e34:	49 89 ff             	mov    %rdi,%r15
  402e37:	89 c9                	mov    %ecx,%ecx
  402e39:	48 8d 15 10 c7 00 00 	lea    0xc710(%rip),%rdx        # 40f550 <__libm_err_code_mapping_table>
  402e40:	0f b7 34 8a          	movzwl (%rdx,%rcx,4),%esi
  402e44:	89 f1                	mov    %esi,%ecx
  402e46:	83 e1 7f             	and    $0x7f,%ecx
  402e49:	48 8d 15 50 cd 00 00 	lea    0xcd50(%rip),%rdx        # 40fba0 <__libm_err_data_table>
  402e50:	8b 14 8a             	mov    (%rdx,%rcx,4),%edx
  402e53:	89 d7                	mov    %edx,%edi
  402e55:	83 e7 07             	and    $0x7,%edi
  402e58:	89 d1                	mov    %edx,%ecx
  402e5a:	c1 e9 03             	shr    $0x3,%ecx
  402e5d:	83 e1 07             	and    $0x7,%ecx
  402e60:	89 4c 24 2c          	mov    %ecx,0x2c(%rsp)
  402e64:	89 f1                	mov    %esi,%ecx
  402e66:	c1 e9 09             	shr    $0x9,%ecx
  402e69:	48 89 4c 24 30       	mov    %rcx,0x30(%rsp)
  402e6e:	c1 ee 07             	shr    $0x7,%esi
  402e71:	83 e6 03             	and    $0x3,%esi
  402e74:	01 c0                	add    %eax,%eax
  402e76:	8d 0c 40             	lea    (%rax,%rax,2),%ecx
  402e79:	80 c1 06             	add    $0x6,%cl
  402e7c:	d3 fa                	sar    %cl,%edx
  402e7e:	83 e2 3f             	and    $0x3f,%edx
  402e81:	48 8d 05 c8 cd 00 00 	lea    0xcdc8(%rip),%rax        # 40fc50 <__libm_err_response_table>
  402e88:	0f b7 14 90          	movzwl (%rax,%rdx,4),%edx
  402e8c:	89 d0                	mov    %edx,%eax
  402e8e:	c1 e8 05             	shr    $0x5,%eax
  402e91:	83 e0 1f             	and    $0x1f,%eax
  402e94:	48 8d 0d e5 c4 00 00 	lea    0xc4e5(%rip),%rcx        # 40f380 <__libm_action_list>
  402e9b:	4c 8b 24 c1          	mov    (%rcx,%rax,8),%r12
  402e9f:	89 d0                	mov    %edx,%eax
  402ea1:	c1 e8 03             	shr    $0x3,%eax
  402ea4:	83 e0 03             	and    $0x3,%eax
  402ea7:	89 44 24 10          	mov    %eax,0x10(%rsp)
  402eab:	83 e2 07             	and    $0x7,%edx
  402eae:	89 54 24 14          	mov    %edx,0x14(%rsp)
  402eb2:	48 89 74 24 38       	mov    %rsi,0x38(%rsp)
  402eb7:	48 8d 04 76          	lea    (%rsi,%rsi,2),%rax
  402ebb:	48 8d 0d 3e 33 03 00 	lea    0x3333e(%rip),%rcx        # 436200 <__libm_error_support.__libm_type_info_table>
  402ec2:	4c 8d 14 c1          	lea    (%rcx,%rax,8),%r10
  402ec6:	48 89 7c 24 48       	mov    %rdi,0x48(%rsp)
  402ecb:	48 c1 e7 02          	shl    $0x2,%rdi
  402ecf:	48 89 7c 24 40       	mov    %rdi,0x40(%rsp)
  402ed4:	4c 8d 2d 01 c4 00 00 	lea    0xc401(%rip),%r13        # 40f2dc <ONE+0x2c>
  402edb:	c7 44 24 0c 00 00 00 	movl   $0x0,0xc(%rsp)
  402ee2:	00 
  402ee3:	31 c0                	xor    %eax,%eax
  402ee5:	48 89 44 24 20       	mov    %rax,0x20(%rsp)
  402eea:	4c 89 54 24 18       	mov    %r10,0x18(%rsp)
  402eef:	eb 4f                	jmp    402f40 <__libm_error_support+0x180>
  402ef1:	66 41 0b 44 4f 0a    	or     0xa(%r15,%rcx,2),%ax
  402ef7:	66 41 0b 44 4f 08    	or     0x8(%r15,%rcx,2),%ax
  402efd:	66 41 0b 44 4f 06    	or     0x6(%r15,%rcx,2),%ax
  402f03:	66 41 0b 44 4f 04    	or     0x4(%r15,%rcx,2),%ax
  402f09:	66 41 0b 44 4f 02    	or     0x2(%r15,%rcx,2),%ax
  402f0f:	66 41 0b 04 4f       	or     (%r15,%rcx,2),%ax
  402f14:	8b 4c 24 0c          	mov    0xc(%rsp),%ecx
  402f18:	66 85 c0             	test   %ax,%ax
  402f1b:	b8 01 00 00 00       	mov    $0x1,%eax
  402f20:	0f 44 c8             	cmove  %eax,%ecx
  402f23:	89 4c 24 0c          	mov    %ecx,0xc(%rsp)
  402f27:	48 83 e5 f0          	and    $0xfffffffffffffff0,%rbp
  402f2b:	48 c1 e5 08          	shl    $0x8,%rbp
  402f2f:	48 81 cd 75 03 00 00 	or     $0x375,%rbp
  402f36:	49 89 ec             	mov    %rbp,%r12
  402f39:	0f 1f 80 00 00 00 00 	nopl   0x0(%rax)
  402f40:	4c 89 e5             	mov    %r12,%rbp
  402f43:	89 e8                	mov    %ebp,%eax
  402f45:	83 e0 0f             	and    $0xf,%eax
  402f48:	49 c1 fc 04          	sar    $0x4,%r12
  402f4c:	83 f8 0c             	cmp    $0xc,%eax
  402f4f:	77 ef                	ja     402f40 <__libm_error_support+0x180>
  402f51:	49 63 44 85 00       	movslq 0x0(%r13,%rax,4),%rax
  402f56:	4c 01 e8             	add    %r13,%rax
  402f59:	3e ff e0             	notrack jmpq *%rax
  402f5c:	8b 44 24 10          	mov    0x10(%rsp),%eax
  402f60:	48 8d 0d 15 d1 00 00 	lea    0xd115(%rip),%rcx        # 41007c <__libm_error_support.__libm_errno_table>
  402f67:	8b 2c 81             	mov    (%rcx,%rax,4),%ebp
  402f6a:	e8 21 f2 ff ff       	callq  402190 <__errno_location@plt>
  402f6f:	4c 8b 54 24 18       	mov    0x18(%rsp),%r10
  402f74:	89 28                	mov    %ebp,(%rax)
  402f76:	eb c8                	jmp    402f40 <__libm_error_support+0x180>
  402f78:	49 0f be 42 08       	movsbq 0x8(%r10),%rax
  402f7d:	89 c1                	mov    %eax,%ecx
  402f7f:	49 8d 14 4f          	lea    (%r15,%rcx,2),%rdx
  402f83:	48 83 c2 fe          	add    $0xfffffffffffffffe,%rdx
  402f87:	48 39 da             	cmp    %rbx,%rdx
  402f8a:	0f 82 92 02 00 00    	jb     403222 <__libm_error_support+0x462>
  402f90:	48 8d 14 4b          	lea    (%rbx,%rcx,2),%rdx
  402f94:	48 83 c2 fe          	add    $0xfffffffffffffffe,%rdx
  402f98:	4c 39 fa             	cmp    %r15,%rdx
  402f9b:	0f 82 81 02 00 00    	jb     403222 <__libm_error_support+0x462>
  402fa1:	31 c0                	xor    %eax,%eax
  402fa3:	66 66 66 66 2e 0f 1f 	data16 data16 data16 nopw %cs:0x0(%rax,%rax,1)
  402faa:	84 00 00 00 00 00 
  402fb0:	41 0f b7 14 47       	movzwl (%r15,%rax,2),%edx
  402fb5:	66 89 14 43          	mov    %dx,(%rbx,%rax,2)
  402fb9:	48 ff c0             	inc    %rax
  402fbc:	48 39 c1             	cmp    %rax,%rcx
  402fbf:	75 ef                	jne    402fb0 <__libm_error_support+0x1f0>
  402fc1:	e9 7a ff ff ff       	jmpq   402f40 <__libm_error_support+0x180>
  402fc6:	48 83 e5 f0          	and    $0xfffffffffffffff0,%rbp
  402fca:	48 c1 e5 08          	shl    $0x8,%rbp
  402fce:	48 81 cd 76 03 00 00 	or     $0x376,%rbp
  402fd5:	49 89 ec             	mov    %rbp,%r12
  402fd8:	e9 63 ff ff ff       	jmpq   402f40 <__libm_error_support+0x180>
  402fdd:	48 8b 44 24 30       	mov    0x30(%rsp),%rax
  402fe2:	48 8d 0d 77 32 03 00 	lea    0x33277(%rip),%rcx        # 436260 <__libm_func_names>
  402fe9:	48 8b 34 c1          	mov    (%rcx,%rax,8),%rsi
  402fed:	49 8b 12             	mov    (%r10),%rdx
  402ff0:	48 8b 44 24 40       	mov    0x40(%rsp),%rax
  402ff5:	48 8d 3d 68 c3 00 00 	lea    0xc368(%rip),%rdi        # 40f364 <reltable.__libm_error_support>
  402ffc:	48 63 0c 38          	movslq (%rax,%rdi,1),%rcx
  403000:	48 01 f9             	add    %rdi,%rcx
  403003:	8b 7c 24 2c          	mov    0x2c(%rsp),%edi
  403007:	31 c0                	xor    %eax,%eax
  403009:	e8 22 04 00 00       	callq  403430 <write_message>
  40300e:	4c 8b 54 24 18       	mov    0x18(%rsp),%r10
  403013:	e9 28 ff ff ff       	jmpq   402f40 <__libm_error_support+0x180>
  403018:	48 8b 03             	mov    (%rbx),%rax
  40301b:	41 0f b6 4a 0c       	movzbl 0xc(%r10),%ecx
  403020:	48 d3 e0             	shl    %cl,%rax
  403023:	48 83 e5 f0          	and    $0xfffffffffffffff0,%rbp
  403027:	48 83 cd 01          	or     $0x1,%rbp
  40302b:	48 85 c0             	test   %rax,%rax
  40302e:	4c 0f 44 e5          	cmove  %rbp,%r12
  403032:	8b 44 24 10          	mov    0x10(%rsp),%eax
  403036:	b9 00 00 00 00       	mov    $0x0,%ecx
  40303b:	0f 44 c1             	cmove  %ecx,%eax
  40303e:	89 44 24 10          	mov    %eax,0x10(%rsp)
  403042:	e9 f9 fe ff ff       	jmpq   402f40 <__libm_error_support+0x180>
  403047:	41 0f be 42 08       	movsbl 0x8(%r10),%eax
  40304c:	8b 4c 24 14          	mov    0x14(%rsp),%ecx
  403050:	0f af c8             	imul   %eax,%ecx
  403053:	49 0f be 52 0a       	movsbq 0xa(%r10),%rdx
  403058:	83 7c 24 38 03       	cmpl   $0x3,0x38(%rsp)
  40305d:	4c 8d 1d bc c3 00 00 	lea    0xc3bc(%rip),%r11        # 40f420 <__libm_key_value>
  403064:	75 33                	jne    403099 <__libm_error_support+0x2d9>
  403066:	89 c6                	mov    %eax,%esi
  403068:	c1 ee 03             	shr    $0x3,%esi
  40306b:	48 63 f9             	movslq %ecx,%rdi
  40306e:	48 01 d7             	add    %rdx,%rdi
  403071:	48 01 ff             	add    %rdi,%rdi
  403074:	45 31 c0             	xor    %r8d,%r8d
  403077:	66 0f 1f 84 00 00 00 	nopw   0x0(%rax,%rax,1)
  40307e:	00 00 
  403080:	4e 8d 0c 07          	lea    (%rdi,%r8,1),%r9
  403084:	f3 43 0f 6f 04 0b    	movdqu (%r11,%r9,1),%xmm0
  40308a:	f3 42 0f 7f 04 03    	movdqu %xmm0,(%rbx,%r8,1)
  403090:	49 83 c0 10          	add    $0x10,%r8
  403094:	48 ff ce             	dec    %rsi
  403097:	75 e7                	jne    403080 <__libm_error_support+0x2c0>
  403099:	89 c6                	mov    %eax,%esi
  40309b:	83 e6 07             	and    $0x7,%esi
  40309e:	48 ff ce             	dec    %rsi
  4030a1:	48 83 fe 06          	cmp    $0x6,%rsi
  4030a5:	0f 87 95 fe ff ff    	ja     402f40 <__libm_error_support+0x180>
  4030ab:	83 e0 f8             	and    $0xfffffff8,%eax
  4030ae:	48 8d 3d 93 c2 00 00 	lea    0xc293(%rip),%rdi        # 40f348 <ONE+0x98>
  4030b5:	48 63 34 b7          	movslq (%rdi,%rsi,4),%rsi
  4030b9:	48 01 fe             	add    %rdi,%rsi
  4030bc:	3e ff e6             	notrack jmpq *%rsi
  4030bf:	48 63 c9             	movslq %ecx,%rcx
  4030c2:	48 01 d1             	add    %rdx,%rcx
  4030c5:	48 01 c1             	add    %rax,%rcx
  4030c8:	48 8d 35 51 c3 00 00 	lea    0xc351(%rip),%rsi        # 40f420 <__libm_key_value>
  4030cf:	e9 1a 03 00 00       	jmpq   4033ee <__libm_error_support+0x62e>
  4030d4:	4c 89 f8             	mov    %r15,%rax
  4030d7:	4c 89 7c 24 20       	mov    %r15,0x20(%rsp)
  4030dc:	e9 5f fe ff ff       	jmpq   402f40 <__libm_error_support+0x180>
  4030e1:	48 89 d8             	mov    %rbx,%rax
  4030e4:	48 89 5c 24 20       	mov    %rbx,0x20(%rsp)
  4030e9:	e9 52 fe ff ff       	jmpq   402f40 <__libm_error_support+0x180>
  4030ee:	49 63 42 10          	movslq 0x10(%r10),%rax
  4030f2:	48 8b 4c 24 20       	mov    0x20(%rsp),%rcx
  4030f7:	0f b7 04 41          	movzwl (%rcx,%rax,2),%eax
  4030fb:	c1 e8 0f             	shr    $0xf,%eax
  4030fe:	8b 4c 24 0c          	mov    0xc(%rsp),%ecx
  403102:	09 c1                	or     %eax,%ecx
  403104:	89 4c 24 0c          	mov    %ecx,0xc(%rsp)
  403108:	31 4c 24 14          	xor    %ecx,0x14(%rsp)
  40310c:	e9 2f fe ff ff       	jmpq   402f40 <__libm_error_support+0x180>
  403111:	41 8b 42 08          	mov    0x8(%r10),%eax
  403115:	3c 02                	cmp    $0x2,%al
  403117:	b9 01 00 00 00       	mov    $0x1,%ecx
  40311c:	0f 4c c1             	cmovl  %ecx,%eax
  40311f:	0f b6 c8             	movzbl %al,%ecx
  403122:	80 f9 08             	cmp    $0x8,%cl
  403125:	0f 83 a0 01 00 00    	jae    4032cb <__libm_error_support+0x50b>
  40312b:	31 c0                	xor    %eax,%eax
  40312d:	e9 e2 01 00 00       	jmpq   403314 <__libm_error_support+0x554>
  403132:	48 8b 44 24 30       	mov    0x30(%rsp),%rax
  403137:	48 8d 0d 22 31 03 00 	lea    0x33122(%rip),%rcx        # 436260 <__libm_func_names>
  40313e:	4c 8b 0c c1          	mov    (%rcx,%rax,8),%r9
  403142:	49 8b 02             	mov    (%r10),%rax
  403145:	48 89 04 24          	mov    %rax,(%rsp)
  403149:	be 14 00 00 00       	mov    $0x14,%esi
  40314e:	b9 14 00 00 00       	mov    $0x14,%ecx
  403153:	4c 8d ac 24 b0 00 00 	lea    0xb0(%rsp),%r13
  40315a:	00 
  40315b:	4c 89 ef             	mov    %r13,%rdi
  40315e:	ba 01 00 00 00       	mov    $0x1,%edx
  403163:	4c 8d 05 b5 cb 00 00 	lea    0xcbb5(%rip),%r8        # 40fd1f <__libm_err_response_table+0xcf>
  40316a:	31 c0                	xor    %eax,%eax
  40316c:	e8 7f f0 ff ff       	callq  4021f0 <__snprintf_chk@plt>
  403171:	48 8b 74 24 18       	mov    0x18(%rsp),%rsi
  403176:	48 8b 44 24 48       	mov    0x48(%rsp),%rax
  40317b:	89 44 24 70          	mov    %eax,0x70(%rsp)
  40317f:	4c 89 6c 24 78       	mov    %r13,0x78(%rsp)
  403184:	48 0f be 46 08       	movsbq 0x8(%rsi),%rax
  403189:	89 c0                	mov    %eax,%eax
  40318b:	31 c9                	xor    %ecx,%ecx
  40318d:	0f 1f 00             	nopl   (%rax)
  403190:	41 0f b7 14 4f       	movzwl (%r15,%rcx,2),%edx
  403195:	66 89 94 4c 80 00 00 	mov    %dx,0x80(%rsp,%rcx,2)
  40319c:	00 
  40319d:	48 ff c1             	inc    %rcx
  4031a0:	48 39 c8             	cmp    %rcx,%rax
  4031a3:	75 eb                	jne    403190 <__libm_error_support+0x3d0>
  4031a5:	48 0f be 4e 09       	movsbq 0x9(%rsi),%rcx
  4031aa:	48 8d 14 4c          	lea    (%rsp,%rcx,2),%rdx
  4031ae:	48 81 c2 80 00 00 00 	add    $0x80,%rdx
  4031b5:	31 f6                	xor    %esi,%esi
  4031b7:	66 0f 1f 84 00 00 00 	nopw   0x0(%rax,%rax,1)
  4031be:	00 00 
  4031c0:	41 0f b7 3c 76       	movzwl (%r14,%rsi,2),%edi
  4031c5:	66 89 3c 72          	mov    %di,(%rdx,%rsi,2)
  4031c9:	48 ff c6             	inc    %rsi
  4031cc:	48 39 f0             	cmp    %rsi,%rax
  4031cf:	75 ef                	jne    4031c0 <__libm_error_support+0x400>
  4031d1:	48 8d 0c 8c          	lea    (%rsp,%rcx,4),%rcx
  4031d5:	48 81 c1 80 00 00 00 	add    $0x80,%rcx
  4031dc:	31 d2                	xor    %edx,%edx
  4031de:	4c 8d 2d f7 c0 00 00 	lea    0xc0f7(%rip),%r13        # 40f2dc <ONE+0x2c>
  4031e5:	66 66 2e 0f 1f 84 00 	data16 nopw %cs:0x0(%rax,%rax,1)
  4031ec:	00 00 00 00 
  4031f0:	0f b7 34 53          	movzwl (%rbx,%rdx,2),%esi
  4031f4:	66 89 34 51          	mov    %si,(%rcx,%rdx,2)
  4031f8:	48 ff c2             	inc    %rdx
  4031fb:	48 39 d0             	cmp    %rdx,%rax
  4031fe:	75 f0                	jne    4031f0 <__libm_error_support+0x430>
  403200:	48 8d 7c 24 70       	lea    0x70(%rsp),%rdi
  403205:	48 8b 44 24 38       	mov    0x38(%rsp),%rax
  40320a:	ff 54 c4 50          	callq  *0x50(%rsp,%rax,8)
  40320e:	48 83 e5 f0          	and    $0xfffffffffffffff0,%rbp
  403212:	85 c0                	test   %eax,%eax
  403214:	4c 0f 45 e5          	cmovne %rbp,%r12
  403218:	4c 8b 54 24 18       	mov    0x18(%rsp),%r10
  40321d:	e9 1e fd ff ff       	jmpq   402f40 <__libm_error_support+0x180>
  403222:	83 f9 08             	cmp    $0x8,%ecx
  403225:	72 2d                	jb     403254 <__libm_error_support+0x494>
  403227:	89 ca                	mov    %ecx,%edx
  403229:	c1 ea 03             	shr    $0x3,%edx
  40322c:	48 c1 e2 04          	shl    $0x4,%rdx
  403230:	31 f6                	xor    %esi,%esi
  403232:	66 66 66 66 66 2e 0f 	data16 data16 data16 data16 nopw %cs:0x0(%rax,%rax,1)
  403239:	1f 84 00 00 00 00 00 
  403240:	f3 41 0f 6f 04 37    	movdqu (%r15,%rsi,1),%xmm0
  403246:	f3 0f 7f 04 33       	movdqu %xmm0,(%rbx,%rsi,1)
  40324b:	48 83 c6 10          	add    $0x10,%rsi
  40324f:	48 39 f2             	cmp    %rsi,%rdx
  403252:	75 ec                	jne    403240 <__libm_error_support+0x480>
  403254:	83 e0 f8             	and    $0xfffffff8,%eax
  403257:	48 89 c2             	mov    %rax,%rdx
  40325a:	48 f7 d2             	not    %rdx
  40325d:	48 01 d1             	add    %rdx,%rcx
  403260:	48 83 f9 06          	cmp    $0x6,%rcx
  403264:	0f 87 d6 fc ff ff    	ja     402f40 <__libm_error_support+0x180>
  40326a:	48 8d 15 bb c0 00 00 	lea    0xc0bb(%rip),%rdx        # 40f32c <ONE+0x7c>
  403271:	48 63 0c 8a          	movslq (%rdx,%rcx,4),%rcx
  403275:	48 01 d1             	add    %rdx,%rcx
  403278:	3e ff e1             	notrack jmpq *%rcx
  40327b:	41 0f b7 4c 47 0c    	movzwl 0xc(%r15,%rax,2),%ecx
  403281:	66 89 4c 43 0c       	mov    %cx,0xc(%rbx,%rax,2)
  403286:	41 0f b7 4c 47 0a    	movzwl 0xa(%r15,%rax,2),%ecx
  40328c:	66 89 4c 43 0a       	mov    %cx,0xa(%rbx,%rax,2)
  403291:	41 0f b7 4c 47 08    	movzwl 0x8(%r15,%rax,2),%ecx
  403297:	66 89 4c 43 08       	mov    %cx,0x8(%rbx,%rax,2)
  40329c:	41 0f b7 4c 47 06    	movzwl 0x6(%r15,%rax,2),%ecx
  4032a2:	66 89 4c 43 06       	mov    %cx,0x6(%rbx,%rax,2)
  4032a7:	41 0f b7 4c 47 04    	movzwl 0x4(%r15,%rax,2),%ecx
  4032ad:	66 89 4c 43 04       	mov    %cx,0x4(%rbx,%rax,2)
  4032b2:	41 0f b7 4c 47 02    	movzwl 0x2(%r15,%rax,2),%ecx
  4032b8:	66 89 4c 43 02       	mov    %cx,0x2(%rbx,%rax,2)
  4032bd:	41 0f b7 0c 47       	movzwl (%r15,%rax,2),%ecx
  4032c2:	66 89 0c 43          	mov    %cx,(%rbx,%rax,2)
  4032c6:	e9 75 fc ff ff       	jmpq   402f40 <__libm_error_support+0x180>
  4032cb:	89 ca                	mov    %ecx,%edx
  4032cd:	c1 ea 03             	shr    $0x3,%edx
  4032d0:	48 c1 e2 04          	shl    $0x4,%rdx
  4032d4:	31 f6                	xor    %esi,%esi
  4032d6:	31 c0                	xor    %eax,%eax
  4032d8:	0f 1f 84 00 00 00 00 	nopl   0x0(%rax,%rax,1)
  4032df:	00 
  4032e0:	f3 41 0f 6f 04 37    	movdqu (%r15,%rsi,1),%xmm0
  4032e6:	66 0f 70 c8 ee       	pshufd $0xee,%xmm0,%xmm1
  4032eb:	66 0f eb c8          	por    %xmm0,%xmm1
  4032ef:	66 0f 70 c1 55       	pshufd $0x55,%xmm1,%xmm0
  4032f4:	66 0f eb c1          	por    %xmm1,%xmm0
  4032f8:	66 0f 6f c8          	movdqa %xmm0,%xmm1
  4032fc:	66 0f 72 d1 10       	psrld  $0x10,%xmm1
  403301:	66 0f eb c8          	por    %xmm0,%xmm1
  403305:	66 0f 7e cf          	movd   %xmm1,%edi
  403309:	09 f8                	or     %edi,%eax
  40330b:	48 83 c6 10          	add    $0x10,%rsi
  40330f:	48 39 f2             	cmp    %rsi,%rdx
  403312:	75 cc                	jne    4032e0 <__libm_error_support+0x520>
  403314:	89 ca                	mov    %ecx,%edx
  403316:	83 e2 07             	and    $0x7,%edx
  403319:	48 ff ca             	dec    %rdx
  40331c:	48 83 fa 06          	cmp    $0x6,%rdx
  403320:	0f 87 ee fb ff ff    	ja     402f14 <__libm_error_support+0x154>
  403326:	83 e1 78             	and    $0x78,%ecx
  403329:	48 8d 35 e0 bf 00 00 	lea    0xbfe0(%rip),%rsi        # 40f310 <ONE+0x60>
  403330:	48 63 14 96          	movslq (%rsi,%rdx,4),%rdx
  403334:	48 01 f2             	add    %rsi,%rdx
  403337:	3e ff e2             	notrack jmpq *%rdx
  40333a:	66 41 0b 44 4f 0c    	or     0xc(%r15,%rcx,2),%ax
  403340:	e9 ac fb ff ff       	jmpq   402ef1 <__libm_error_support+0x131>
  403345:	48 63 c9             	movslq %ecx,%rcx
  403348:	48 01 d1             	add    %rdx,%rcx
  40334b:	48 01 c1             	add    %rax,%rcx
  40334e:	48 8d 35 cb c0 00 00 	lea    0xc0cb(%rip),%rsi        # 40f420 <__libm_key_value>
  403355:	e9 8a 00 00 00       	jmpq   4033e4 <__libm_error_support+0x624>
  40335a:	48 63 c9             	movslq %ecx,%rcx
  40335d:	48 01 d1             	add    %rdx,%rcx
  403360:	48 01 c1             	add    %rax,%rcx
  403363:	48 8d 35 b6 c0 00 00 	lea    0xc0b6(%rip),%rsi        # 40f420 <__libm_key_value>
  40336a:	eb 6e                	jmp    4033da <__libm_error_support+0x61a>
  40336c:	48 63 c9             	movslq %ecx,%rcx
  40336f:	48 01 d1             	add    %rdx,%rcx
  403372:	48 01 c1             	add    %rax,%rcx
  403375:	48 8d 35 a4 c0 00 00 	lea    0xc0a4(%rip),%rsi        # 40f420 <__libm_key_value>
  40337c:	eb 52                	jmp    4033d0 <__libm_error_support+0x610>
  40337e:	48 63 c9             	movslq %ecx,%rcx
  403381:	48 01 d1             	add    %rdx,%rcx
  403384:	48 01 c1             	add    %rax,%rcx
  403387:	48 8d 35 92 c0 00 00 	lea    0xc092(%rip),%rsi        # 40f420 <__libm_key_value>
  40338e:	eb 36                	jmp    4033c6 <__libm_error_support+0x606>
  403390:	48 63 c9             	movslq %ecx,%rcx
  403393:	48 01 d1             	add    %rdx,%rcx
  403396:	48 01 c1             	add    %rax,%rcx
  403399:	48 8d 35 80 c0 00 00 	lea    0xc080(%rip),%rsi        # 40f420 <__libm_key_value>
  4033a0:	eb 1a                	jmp    4033bc <__libm_error_support+0x5fc>
  4033a2:	48 63 c9             	movslq %ecx,%rcx
  4033a5:	48 01 d1             	add    %rdx,%rcx
  4033a8:	48 01 c1             	add    %rax,%rcx
  4033ab:	48 8d 35 6e c0 00 00 	lea    0xc06e(%rip),%rsi        # 40f420 <__libm_key_value>
  4033b2:	0f b7 54 4e 0c       	movzwl 0xc(%rsi,%rcx,2),%edx
  4033b7:	66 89 54 43 0c       	mov    %dx,0xc(%rbx,%rax,2)
  4033bc:	0f b7 54 4e 0a       	movzwl 0xa(%rsi,%rcx,2),%edx
  4033c1:	66 89 54 43 0a       	mov    %dx,0xa(%rbx,%rax,2)
  4033c6:	0f b7 54 4e 08       	movzwl 0x8(%rsi,%rcx,2),%edx
  4033cb:	66 89 54 43 08       	mov    %dx,0x8(%rbx,%rax,2)
  4033d0:	0f b7 54 4e 06       	movzwl 0x6(%rsi,%rcx,2),%edx
  4033d5:	66 89 54 43 06       	mov    %dx,0x6(%rbx,%rax,2)
  4033da:	0f b7 54 4e 04       	movzwl 0x4(%rsi,%rcx,2),%edx
  4033df:	66 89 54 43 04       	mov    %dx,0x4(%rbx,%rax,2)
  4033e4:	0f b7 54 4e 02       	movzwl 0x2(%rsi,%rcx,2),%edx
  4033e9:	66 89 54 43 02       	mov    %dx,0x2(%rbx,%rax,2)
  4033ee:	0f b7 0c 4e          	movzwl (%rsi,%rcx,2),%ecx
  4033f2:	66 89 0c 43          	mov    %cx,(%rbx,%rax,2)
  4033f6:	e9 45 fb ff ff       	jmpq   402f40 <__libm_error_support+0x180>
  4033fb:	64 48 8b 04 25 28 00 	mov    %fs:0x28,%rax
  403402:	00 00 
  403404:	48 3b 84 24 d0 00 00 	cmp    0xd0(%rsp),%rax
  40340b:	00 
  40340c:	75 12                	jne    403420 <__libm_error_support+0x660>
  40340e:	48 81 c4 d8 00 00 00 	add    $0xd8,%rsp
  403415:	5b                   	pop    %rbx
  403416:	41 5c                	pop    %r12
  403418:	41 5d                	pop    %r13
  40341a:	41 5e                	pop    %r14
  40341c:	41 5f                	pop    %r15
  40341e:	5d                   	pop    %rbp
  40341f:	c3                   	retq   
  403420:	e8 6b ec ff ff       	callq  402090 <__stack_chk_fail@plt>
  403425:	66 66 2e 0f 1f 84 00 	data16 nopw %cs:0x0(%rax,%rax,1)
  40342c:	00 00 00 00 

0000000000403430 <write_message>:
  403430:	55                   	push   %rbp
  403431:	41 56                	push   %r14
  403433:	53                   	push   %rbx
  403434:	48 81 ec e0 02 00 00 	sub    $0x2e0,%rsp
  40343b:	48 89 74 24 28       	mov    %rsi,0x28(%rsp)
  403440:	48 89 54 24 30       	mov    %rdx,0x30(%rsp)
  403445:	48 89 4c 24 38       	mov    %rcx,0x38(%rsp)
  40344a:	4c 89 44 24 40       	mov    %r8,0x40(%rsp)
  40344f:	4c 89 4c 24 48       	mov    %r9,0x48(%rsp)
  403454:	84 c0                	test   %al,%al
  403456:	74 37                	je     40348f <write_message+0x5f>
  403458:	0f 29 44 24 50       	movaps %xmm0,0x50(%rsp)
  40345d:	0f 29 4c 24 60       	movaps %xmm1,0x60(%rsp)
  403462:	0f 29 54 24 70       	movaps %xmm2,0x70(%rsp)
  403467:	0f 29 9c 24 80 00 00 	movaps %xmm3,0x80(%rsp)
  40346e:	00 
  40346f:	0f 29 a4 24 90 00 00 	movaps %xmm4,0x90(%rsp)
  403476:	00 
  403477:	0f 29 ac 24 a0 00 00 	movaps %xmm5,0xa0(%rsp)
  40347e:	00 
  40347f:	0f 29 b4 24 b0 00 00 	movaps %xmm6,0xb0(%rsp)
  403486:	00 
  403487:	0f 29 bc 24 c0 00 00 	movaps %xmm7,0xc0(%rsp)
  40348e:	00 
  40348f:	64 48 8b 04 25 28 00 	mov    %fs:0x28,%rax
  403496:	00 00 
  403498:	48 89 84 24 d8 02 00 	mov    %rax,0x2d8(%rsp)
  40349f:	00 
  4034a0:	89 f8                	mov    %edi,%eax
  4034a2:	48 8d 0d 77 31 03 00 	lea    0x33177(%rip),%rcx        # 436620 <__libm_message_table>
  4034a9:	48 8b 1c c1          	mov    (%rcx,%rax,8),%rbx
  4034ad:	80 3d 94 45 04 00 00 	cmpb   $0x0,0x44594(%rip)        # 447a48 <use_message_catalog>
  4034b4:	75 42                	jne    4034f8 <write_message+0xc8>
  4034b6:	89 fd                	mov    %edi,%ebp
  4034b8:	48 8b 3d 91 45 04 00 	mov    0x44591(%rip),%rdi        # 447a50 <message_catalog>
  4034bf:	48 85 ff             	test   %rdi,%rdi
  4034c2:	75 22                	jne    4034e6 <write_message+0xb6>
  4034c4:	48 8d 3d d6 c8 00 00 	lea    0xc8d6(%rip),%rdi        # 40fda1 <__libm_err_response_table+0x151>
  4034cb:	31 f6                	xor    %esi,%esi
  4034cd:	e8 fe ec ff ff       	callq  4021d0 <catopen@plt>
  4034d2:	48 89 c7             	mov    %rax,%rdi
  4034d5:	48 89 05 74 45 04 00 	mov    %rax,0x44574(%rip)        # 447a50 <message_catalog>
  4034dc:	48 83 f8 ff          	cmp    $0xffffffffffffffff,%rax
  4034e0:	0f 84 91 00 00 00    	je     403577 <write_message+0x147>
  4034e6:	be 01 00 00 00       	mov    $0x1,%esi
  4034eb:	89 ea                	mov    %ebp,%edx
  4034ed:	48 89 d9             	mov    %rbx,%rcx
  4034f0:	e8 5b ec ff ff       	callq  402150 <catgets@plt>
  4034f5:	48 89 c3             	mov    %rax,%rbx
  4034f8:	48 8d 44 24 20       	lea    0x20(%rsp),%rax
  4034fd:	48 89 44 24 10       	mov    %rax,0x10(%rsp)
  403502:	48 8d 84 24 00 03 00 	lea    0x300(%rsp),%rax
  403509:	00 
  40350a:	48 89 44 24 08       	mov    %rax,0x8(%rsp)
  40350f:	48 b8 08 00 00 00 30 	movabs $0x3000000008,%rax
  403516:	00 00 00 
  403519:	48 89 04 24          	mov    %rax,(%rsp)
  40351d:	4c 8d b4 24 d0 00 00 	lea    0xd0(%rsp),%r14
  403524:	00 
  403525:	49 89 e1             	mov    %rsp,%r9
  403528:	be 00 02 00 00       	mov    $0x200,%esi
  40352d:	b9 00 02 00 00       	mov    $0x200,%ecx
  403532:	4c 89 f7             	mov    %r14,%rdi
  403535:	ba 01 00 00 00       	mov    $0x1,%edx
  40353a:	49 89 d8             	mov    %rbx,%r8
  40353d:	e8 3e eb ff ff       	callq  402080 <__vsnprintf_chk@plt>
  403542:	48 8b 05 6f 3a 03 00 	mov    0x33a6f(%rip),%rax        # 436fb8 <stderr@GLIBC_2.2.5>
  403549:	48 8b 30             	mov    (%rax),%rsi
  40354c:	4c 89 f7             	mov    %r14,%rdi
  40354f:	e8 4c eb ff ff       	callq  4020a0 <fputs@plt>
  403554:	64 48 8b 04 25 28 00 	mov    %fs:0x28,%rax
  40355b:	00 00 
  40355d:	48 3b 84 24 d8 02 00 	cmp    0x2d8(%rsp),%rax
  403564:	00 
  403565:	0f 85 ed 00 00 00    	jne    403658 <write_message+0x228>
  40356b:	48 81 c4 e0 02 00 00 	add    $0x2e0,%rsp
  403572:	5b                   	pop    %rbx
  403573:	41 5e                	pop    %r14
  403575:	5d                   	pop    %rbp
  403576:	c3                   	retq   
  403577:	48 8d 3d 2c c8 00 00 	lea    0xc82c(%rip),%rdi        # 40fdaa <__libm_err_response_table+0x15a>
  40357e:	e8 bd eb ff ff       	callq  402140 <getenv@plt>
  403583:	4c 8d b4 24 d0 00 00 	lea    0xd0(%rsp),%r14
  40358a:	00 
  40358b:	ba ff 01 00 00       	mov    $0x1ff,%edx
  403590:	b9 00 02 00 00       	mov    $0x200,%ecx
  403595:	4c 89 f7             	mov    %r14,%rdi
  403598:	48 89 c6             	mov    %rax,%rsi
  40359b:	e8 10 eb ff ff       	callq  4020b0 <__strncpy_chk@plt>
  4035a0:	4c 89 f7             	mov    %r14,%rdi
  4035a3:	be 2e 00 00 00       	mov    $0x2e,%esi
  4035a8:	e8 53 eb ff ff       	callq  402100 <strchr@plt>
  4035ad:	48 85 c0             	test   %rax,%rax
  4035b0:	0f 84 96 00 00 00    	je     40364c <write_message+0x21c>
  4035b6:	c6 00 00             	movb   $0x0,(%rax)
  4035b9:	48 8d 3d ea c7 00 00 	lea    0xc7ea(%rip),%rdi        # 40fdaa <__libm_err_response_table+0x15a>
  4035c0:	48 8d b4 24 d0 00 00 	lea    0xd0(%rsp),%rsi
  4035c7:	00 
  4035c8:	ba 01 00 00 00       	mov    $0x1,%edx
  4035cd:	e8 3e eb ff ff       	callq  402110 <setenv@plt>
  4035d2:	48 8d 3d c8 c7 00 00 	lea    0xc7c8(%rip),%rdi        # 40fda1 <__libm_err_response_table+0x151>
  4035d9:	31 f6                	xor    %esi,%esi
  4035db:	e8 f0 eb ff ff       	callq  4021d0 <catopen@plt>
  4035e0:	48 89 c7             	mov    %rax,%rdi
  4035e3:	48 89 05 66 44 04 00 	mov    %rax,0x44466(%rip)        # 447a50 <message_catalog>
  4035ea:	48 83 f8 ff          	cmp    $0xffffffffffffffff,%rax
  4035ee:	0f 85 f2 fe ff ff    	jne    4034e6 <write_message+0xb6>
  4035f4:	4c 8d 05 b4 c7 00 00 	lea    0xc7b4(%rip),%r8        # 40fdaf <__libm_err_response_table+0x15f>
  4035fb:	4c 8d 0d 9f c7 00 00 	lea    0xc79f(%rip),%r9        # 40fda1 <__libm_err_response_table+0x151>
  403602:	4c 8d b4 24 d0 00 00 	lea    0xd0(%rsp),%r14
  403609:	00 
  40360a:	be 00 02 00 00       	mov    $0x200,%esi
  40360f:	b9 00 02 00 00       	mov    $0x200,%ecx
  403614:	4c 89 f7             	mov    %r14,%rdi
  403617:	ba 01 00 00 00       	mov    $0x1,%edx
  40361c:	31 c0                	xor    %eax,%eax
  40361e:	e8 cd eb ff ff       	callq  4021f0 <__snprintf_chk@plt>
  403623:	48 8b 05 8e 39 03 00 	mov    0x3398e(%rip),%rax        # 436fb8 <stderr@GLIBC_2.2.5>
  40362a:	48 8b 30             	mov    (%rax),%rsi
  40362d:	4c 89 f7             	mov    %r14,%rdi
  403630:	e8 6b ea ff ff       	callq  4020a0 <fputs@plt>
  403635:	48 c7 05 10 44 04 00 	movq   $0x0,0x44410(%rip)        # 447a50 <message_catalog>
  40363c:	00 00 00 00 
  403640:	c6 05 01 44 04 00 01 	movb   $0x1,0x44401(%rip)        # 447a48 <use_message_catalog>
  403647:	e9 ac fe ff ff       	jmpq   4034f8 <write_message+0xc8>
  40364c:	48 8b 3d fd 43 04 00 	mov    0x443fd(%rip),%rdi        # 447a50 <message_catalog>
  403653:	e9 8e fe ff ff       	jmpq   4034e6 <write_message+0xb6>
  403658:	e8 33 ea ff ff       	callq  402090 <__stack_chk_fail@plt>
  40365d:	0f 1f 00             	nopl   (%rax)

0000000000403660 <__libm_error_support_wrapper_x64f>:
  403660:	f3 0f 1e fa          	endbr64 
  403664:	48 83 ec 18          	sub    $0x18,%rsp
  403668:	f3 0f 11 44 24 0c    	movss  %xmm0,0xc(%rsp)
  40366e:	f3 0f 11 4c 24 14    	movss  %xmm1,0x14(%rsp)
  403674:	f3 0f 11 54 24 10    	movss  %xmm2,0x10(%rsp)
  40367a:	66 0f 7e d9          	movd   %xmm3,%ecx
  40367e:	48 8d 7c 24 14       	lea    0x14(%rsp),%rdi
  403683:	48 8d 74 24 10       	lea    0x10(%rsp),%rsi
  403688:	48 8d 54 24 0c       	lea    0xc(%rsp),%rdx
  40368d:	e8 2e f7 ff ff       	callq  402dc0 <__libm_error_support>
  403692:	f3 0f 10 44 24 0c    	movss  0xc(%rsp),%xmm0
  403698:	48 83 c4 18          	add    $0x18,%rsp
  40369c:	c3                   	retq   
  40369d:	0f 1f 00             	nopl   (%rax)

00000000004036a0 <__libm_error_support_wrapper_x64>:
  4036a0:	f3 0f 1e fa          	endbr64 
  4036a4:	48 83 ec 18          	sub    $0x18,%rsp
  4036a8:	f2 0f 11 04 24       	movsd  %xmm0,(%rsp)
  4036ad:	f2 0f 11 4c 24 10    	movsd  %xmm1,0x10(%rsp)
  4036b3:	f2 0f 11 54 24 08    	movsd  %xmm2,0x8(%rsp)
  4036b9:	66 48 0f 7e d9       	movq   %xmm3,%rcx
  4036be:	48 8d 7c 24 10       	lea    0x10(%rsp),%rdi
  4036c3:	48 8d 74 24 08       	lea    0x8(%rsp),%rsi
  4036c8:	48 89 e2             	mov    %rsp,%rdx
  4036cb:	e8 f0 f6 ff ff       	callq  402dc0 <__libm_error_support>
  4036d0:	f2 0f 10 04 24       	movsd  (%rsp),%xmm0
  4036d5:	48 83 c4 18          	add    $0x18,%rsp
  4036d9:	c3                   	retq   
  4036da:	66 0f 1f 44 00 00    	nopw   0x0(%rax,%rax,1)

00000000004036e0 <__libm_acos_dispatch_table_x_init>:
  4036e0:	f3 0f 1e fa          	endbr64 
  4036e4:	53                   	push   %rbx
  4036e5:	48 83 ec 10          	sub    $0x10,%rsp
  4036e9:	48 c7 c3 c0 7a 44 00 	mov    $0x447ac0,%rbx
  4036f0:	8b 03                	mov    (%rbx),%eax
  4036f2:	85 c0                	test   %eax,%eax
  4036f4:	75 13                	jne    403709 <__libm_acos_dispatch_table_x_init+0x29>
  4036f6:	f2 0f 11 44 24 08    	movsd  %xmm0,0x8(%rsp)
  4036fc:	e8 5f 06 00 00       	callq  403d60 <__libm_feature_flag_x_init>
  403701:	f2 0f 10 44 24 08    	movsd  0x8(%rsp),%xmm0
  403707:	eb e7                	jmp    4036f0 <__libm_acos_dispatch_table_x_init+0x10>
  403709:	48 98                	cltq   
  40370b:	48 8d 0d 6e 2f 03 00 	lea    0x32f6e(%rip),%rcx        # 436680 <__libm_acos_dispatch_table_x>
  403712:	48 8b 0c c1          	mov    (%rcx,%rax,8),%rcx
  403716:	48 c7 c2 c0 72 43 00 	mov    $0x4372c0,%rdx
  40371d:	31 c0                	xor    %eax,%eax
  40371f:	f0 48 0f b1 0a       	lock cmpxchg %rcx,(%rdx)
  403724:	48 8d 05 b5 ff ff ff 	lea    -0x4b(%rip),%rax        # 4036e0 <__libm_acos_dispatch_table_x_init>
  40372b:	f0 48 0f b1 0a       	lock cmpxchg %rcx,(%rdx)
  403730:	48 83 c4 10          	add    $0x10,%rsp
  403734:	5b                   	pop    %rbx
  403735:	ff 22                	jmpq   *(%rdx)
  403737:	66 0f 1f 84 00 00 00 	nopw   0x0(%rax,%rax,1)
  40373e:	00 00 

0000000000403740 <__libm_acos>:
  403740:	f3 0f 1e fa          	endbr64 
  403744:	48 c7 c0 c0 72 43 00 	mov    $0x4372c0,%rax
  40374b:	ff 20                	jmpq   *(%rax)
  40374d:	0f 1f 00             	nopl   (%rax)

0000000000403750 <__libm_atan2_dispatch_table_x_init>:
  403750:	f3 0f 1e fa          	endbr64 
  403754:	53                   	push   %rbx
  403755:	48 83 ec 10          	sub    $0x10,%rsp
  403759:	48 c7 c3 c0 7a 44 00 	mov    $0x447ac0,%rbx
  403760:	8b 03                	mov    (%rbx),%eax
  403762:	85 c0                	test   %eax,%eax
  403764:	75 1d                	jne    403783 <__libm_atan2_dispatch_table_x_init+0x33>
  403766:	f2 0f 11 04 24       	movsd  %xmm0,(%rsp)
  40376b:	f2 0f 11 4c 24 08    	movsd  %xmm1,0x8(%rsp)
  403771:	e8 ea 05 00 00       	callq  403d60 <__libm_feature_flag_x_init>
  403776:	f2 0f 10 04 24       	movsd  (%rsp),%xmm0
  40377b:	f2 0f 10 4c 24 08    	movsd  0x8(%rsp),%xmm1
  403781:	eb dd                	jmp    403760 <__libm_atan2_dispatch_table_x_init+0x10>
  403783:	48 98                	cltq   
  403785:	48 8d 0d 74 2f 03 00 	lea    0x32f74(%rip),%rcx        # 436700 <__libm_atan2_dispatch_table_x>
  40378c:	48 8b 0c c1          	mov    (%rcx,%rax,8),%rcx
  403790:	48 c7 c2 00 73 43 00 	mov    $0x437300,%rdx
  403797:	31 c0                	xor    %eax,%eax
  403799:	f0 48 0f b1 0a       	lock cmpxchg %rcx,(%rdx)
  40379e:	48 8d 05 ab ff ff ff 	lea    -0x55(%rip),%rax        # 403750 <__libm_atan2_dispatch_table_x_init>
  4037a5:	f0 48 0f b1 0a       	lock cmpxchg %rcx,(%rdx)
  4037aa:	48 8b 02             	mov    (%rdx),%rax
  4037ad:	48 83 c4 10          	add    $0x10,%rsp
  4037b1:	5b                   	pop    %rbx
  4037b2:	ff e0                	jmpq   *%rax
  4037b4:	66 66 66 2e 0f 1f 84 	data16 data16 nopw %cs:0x0(%rax,%rax,1)
  4037bb:	00 00 00 00 00 

00000000004037c0 <__libm_atan2>:
  4037c0:	f3 0f 1e fa          	endbr64 
  4037c4:	48 c7 c0 00 73 43 00 	mov    $0x437300,%rax
  4037cb:	48 8b 00             	mov    (%rax),%rax
  4037ce:	ff e0                	jmpq   *%rax

00000000004037d0 <__libm_ceil_dispatch_table_x_init>:
  4037d0:	f3 0f 1e fa          	endbr64 
  4037d4:	53                   	push   %rbx
  4037d5:	48 83 ec 10          	sub    $0x10,%rsp
  4037d9:	48 c7 c3 c0 7a 44 00 	mov    $0x447ac0,%rbx
  4037e0:	8b 03                	mov    (%rbx),%eax
  4037e2:	85 c0                	test   %eax,%eax
  4037e4:	75 13                	jne    4037f9 <__libm_ceil_dispatch_table_x_init+0x29>
  4037e6:	f2 0f 11 44 24 08    	movsd  %xmm0,0x8(%rsp)
  4037ec:	e8 6f 05 00 00       	callq  403d60 <__libm_feature_flag_x_init>
  4037f1:	f2 0f 10 44 24 08    	movsd  0x8(%rsp),%xmm0
  4037f7:	eb e7                	jmp    4037e0 <__libm_ceil_dispatch_table_x_init+0x10>
  4037f9:	48 98                	cltq   
  4037fb:	48 8d 0d 7e 2f 03 00 	lea    0x32f7e(%rip),%rcx        # 436780 <__libm_ceil_dispatch_table_x>
  403802:	48 8b 0c c1          	mov    (%rcx,%rax,8),%rcx
  403806:	48 c7 c2 40 73 43 00 	mov    $0x437340,%rdx
  40380d:	31 c0                	xor    %eax,%eax
  40380f:	f0 48 0f b1 0a       	lock cmpxchg %rcx,(%rdx)
  403814:	48 8d 05 b5 ff ff ff 	lea    -0x4b(%rip),%rax        # 4037d0 <__libm_ceil_dispatch_table_x_init>
  40381b:	f0 48 0f b1 0a       	lock cmpxchg %rcx,(%rdx)
  403820:	48 83 c4 10          	add    $0x10,%rsp
  403824:	5b                   	pop    %rbx
  403825:	ff 22                	jmpq   *(%rdx)
  403827:	66 0f 1f 84 00 00 00 	nopw   0x0(%rax,%rax,1)
  40382e:	00 00 

0000000000403830 <__libm_ceil>:
  403830:	f3 0f 1e fa          	endbr64 
  403834:	48 c7 c0 40 73 43 00 	mov    $0x437340,%rax
  40383b:	ff 20                	jmpq   *(%rax)
  40383d:	0f 1f 00             	nopl   (%rax)

0000000000403840 <__libm_ceilf_dispatch_table_x_init>:
  403840:	f3 0f 1e fa          	endbr64 
  403844:	53                   	push   %rbx
  403845:	48 83 ec 10          	sub    $0x10,%rsp
  403849:	48 c7 c3 c0 7a 44 00 	mov    $0x447ac0,%rbx
  403850:	8b 03                	mov    (%rbx),%eax
  403852:	85 c0                	test   %eax,%eax
  403854:	75 13                	jne    403869 <__libm_ceilf_dispatch_table_x_init+0x29>
  403856:	f3 0f 11 44 24 0c    	movss  %xmm0,0xc(%rsp)
  40385c:	e8 ff 04 00 00       	callq  403d60 <__libm_feature_flag_x_init>
  403861:	f3 0f 10 44 24 0c    	movss  0xc(%rsp),%xmm0
  403867:	eb e7                	jmp    403850 <__libm_ceilf_dispatch_table_x_init+0x10>
  403869:	48 98                	cltq   
  40386b:	48 8d 0d 8e 2f 03 00 	lea    0x32f8e(%rip),%rcx        # 436800 <__libm_ceilf_dispatch_table_x>
  403872:	48 8b 0c c1          	mov    (%rcx,%rax,8),%rcx
  403876:	48 c7 c2 80 73 43 00 	mov    $0x437380,%rdx
  40387d:	31 c0                	xor    %eax,%eax
  40387f:	f0 48 0f b1 0a       	lock cmpxchg %rcx,(%rdx)
  403884:	48 8d 05 b5 ff ff ff 	lea    -0x4b(%rip),%rax        # 403840 <__libm_ceilf_dispatch_table_x_init>
  40388b:	f0 48 0f b1 0a       	lock cmpxchg %rcx,(%rdx)
  403890:	48 83 c4 10          	add    $0x10,%rsp
  403894:	5b                   	pop    %rbx
  403895:	ff 22                	jmpq   *(%rdx)
  403897:	66 0f 1f 84 00 00 00 	nopw   0x0(%rax,%rax,1)
  40389e:	00 00 

00000000004038a0 <__libm_ceilf>:
  4038a0:	f3 0f 1e fa          	endbr64 
  4038a4:	48 c7 c0 80 73 43 00 	mov    $0x437380,%rax
  4038ab:	ff 20                	jmpq   *(%rax)
  4038ad:	0f 1f 00             	nopl   (%rax)

00000000004038b0 <__libm_cos_dispatch_table_x_init>:
  4038b0:	f3 0f 1e fa          	endbr64 
  4038b4:	53                   	push   %rbx
  4038b5:	48 83 ec 10          	sub    $0x10,%rsp
  4038b9:	48 c7 c3 c0 7a 44 00 	mov    $0x447ac0,%rbx
  4038c0:	8b 03                	mov    (%rbx),%eax
  4038c2:	85 c0                	test   %eax,%eax
  4038c4:	75 13                	jne    4038d9 <__libm_cos_dispatch_table_x_init+0x29>
  4038c6:	f2 0f 11 44 24 08    	movsd  %xmm0,0x8(%rsp)
  4038cc:	e8 8f 04 00 00       	callq  403d60 <__libm_feature_flag_x_init>
  4038d1:	f2 0f 10 44 24 08    	movsd  0x8(%rsp),%xmm0
  4038d7:	eb e7                	jmp    4038c0 <__libm_cos_dispatch_table_x_init+0x10>
  4038d9:	48 98                	cltq   
  4038db:	48 8d 0d 9e 2f 03 00 	lea    0x32f9e(%rip),%rcx        # 436880 <__libm_cos_dispatch_table_x>
  4038e2:	48 8b 0c c1          	mov    (%rcx,%rax,8),%rcx
  4038e6:	48 c7 c2 c0 73 43 00 	mov    $0x4373c0,%rdx
  4038ed:	31 c0                	xor    %eax,%eax
  4038ef:	f0 48 0f b1 0a       	lock cmpxchg %rcx,(%rdx)
  4038f4:	48 8d 05 b5 ff ff ff 	lea    -0x4b(%rip),%rax        # 4038b0 <__libm_cos_dispatch_table_x_init>
  4038fb:	f0 48 0f b1 0a       	lock cmpxchg %rcx,(%rdx)
  403900:	48 83 c4 10          	add    $0x10,%rsp
  403904:	5b                   	pop    %rbx
  403905:	ff 22                	jmpq   *(%rdx)
  403907:	66 0f 1f 84 00 00 00 	nopw   0x0(%rax,%rax,1)
  40390e:	00 00 

0000000000403910 <__libm_cos>:
  403910:	f3 0f 1e fa          	endbr64 
  403914:	48 c7 c0 c0 73 43 00 	mov    $0x4373c0,%rax
  40391b:	ff 20                	jmpq   *(%rax)
  40391d:	0f 1f 00             	nopl   (%rax)

0000000000403920 <__libm_exp_dispatch_table_x_init>:
  403920:	f3 0f 1e fa          	endbr64 
  403924:	53                   	push   %rbx
  403925:	48 83 ec 10          	sub    $0x10,%rsp
  403929:	48 c7 c3 c0 7a 44 00 	mov    $0x447ac0,%rbx
  403930:	8b 03                	mov    (%rbx),%eax
  403932:	85 c0                	test   %eax,%eax
  403934:	75 13                	jne    403949 <__libm_exp_dispatch_table_x_init+0x29>
  403936:	f2 0f 11 44 24 08    	movsd  %xmm0,0x8(%rsp)
  40393c:	e8 1f 04 00 00       	callq  403d60 <__libm_feature_flag_x_init>
  403941:	f2 0f 10 44 24 08    	movsd  0x8(%rsp),%xmm0
  403947:	eb e7                	jmp    403930 <__libm_exp_dispatch_table_x_init+0x10>
  403949:	48 98                	cltq   
  40394b:	48 8d 0d ae 2f 03 00 	lea    0x32fae(%rip),%rcx        # 436900 <__libm_exp_dispatch_table_x>
  403952:	48 8b 0c c1          	mov    (%rcx,%rax,8),%rcx
  403956:	48 c7 c2 00 74 43 00 	mov    $0x437400,%rdx
  40395d:	31 c0                	xor    %eax,%eax
  40395f:	f0 48 0f b1 0a       	lock cmpxchg %rcx,(%rdx)
  403964:	48 8d 05 b5 ff ff ff 	lea    -0x4b(%rip),%rax        # 403920 <__libm_exp_dispatch_table_x_init>
  40396b:	f0 48 0f b1 0a       	lock cmpxchg %rcx,(%rdx)
  403970:	48 83 c4 10          	add    $0x10,%rsp
  403974:	5b                   	pop    %rbx
  403975:	ff 22                	jmpq   *(%rdx)
  403977:	66 0f 1f 84 00 00 00 	nopw   0x0(%rax,%rax,1)
  40397e:	00 00 

0000000000403980 <__libm_exp>:
  403980:	f3 0f 1e fa          	endbr64 
  403984:	48 c7 c0 00 74 43 00 	mov    $0x437400,%rax
  40398b:	ff 20                	jmpq   *(%rax)
  40398d:	0f 1f 00             	nopl   (%rax)

0000000000403990 <__libm_expf_dispatch_table_x_init>:
  403990:	f3 0f 1e fa          	endbr64 
  403994:	53                   	push   %rbx
  403995:	48 83 ec 10          	sub    $0x10,%rsp
  403999:	48 c7 c3 c0 7a 44 00 	mov    $0x447ac0,%rbx
  4039a0:	8b 03                	mov    (%rbx),%eax
  4039a2:	85 c0                	test   %eax,%eax
  4039a4:	75 13                	jne    4039b9 <__libm_expf_dispatch_table_x_init+0x29>
  4039a6:	f3 0f 11 44 24 0c    	movss  %xmm0,0xc(%rsp)
  4039ac:	e8 af 03 00 00       	callq  403d60 <__libm_feature_flag_x_init>
  4039b1:	f3 0f 10 44 24 0c    	movss  0xc(%rsp),%xmm0
  4039b7:	eb e7                	jmp    4039a0 <__libm_expf_dispatch_table_x_init+0x10>
  4039b9:	48 98                	cltq   
  4039bb:	48 8d 0d be 2f 03 00 	lea    0x32fbe(%rip),%rcx        # 436980 <__libm_expf_dispatch_table_x>
  4039c2:	48 8b 0c c1          	mov    (%rcx,%rax,8),%rcx
  4039c6:	48 c7 c2 40 74 43 00 	mov    $0x437440,%rdx
  4039cd:	31 c0                	xor    %eax,%eax
  4039cf:	f0 48 0f b1 0a       	lock cmpxchg %rcx,(%rdx)
  4039d4:	48 8d 05 b5 ff ff ff 	lea    -0x4b(%rip),%rax        # 403990 <__libm_expf_dispatch_table_x_init>
  4039db:	f0 48 0f b1 0a       	lock cmpxchg %rcx,(%rdx)
  4039e0:	48 83 c4 10          	add    $0x10,%rsp
  4039e4:	5b                   	pop    %rbx
  4039e5:	ff 22                	jmpq   *(%rdx)
  4039e7:	66 0f 1f 84 00 00 00 	nopw   0x0(%rax,%rax,1)
  4039ee:	00 00 

00000000004039f0 <__libm_expf>:
  4039f0:	f3 0f 1e fa          	endbr64 
  4039f4:	48 c7 c0 40 74 43 00 	mov    $0x437440,%rax
  4039fb:	ff 20                	jmpq   *(%rax)
  4039fd:	0f 1f 00             	nopl   (%rax)

0000000000403a00 <__libm_floor_dispatch_table_x_init>:
  403a00:	f3 0f 1e fa          	endbr64 
  403a04:	53                   	push   %rbx
  403a05:	48 83 ec 10          	sub    $0x10,%rsp
  403a09:	48 c7 c3 c0 7a 44 00 	mov    $0x447ac0,%rbx
  403a10:	8b 03                	mov    (%rbx),%eax
  403a12:	85 c0                	test   %eax,%eax
  403a14:	75 13                	jne    403a29 <__libm_floor_dispatch_table_x_init+0x29>
  403a16:	f2 0f 11 44 24 08    	movsd  %xmm0,0x8(%rsp)
  403a1c:	e8 3f 03 00 00       	callq  403d60 <__libm_feature_flag_x_init>
  403a21:	f2 0f 10 44 24 08    	movsd  0x8(%rsp),%xmm0
  403a27:	eb e7                	jmp    403a10 <__libm_floor_dispatch_table_x_init+0x10>
  403a29:	48 98                	cltq   
  403a2b:	48 8d 0d ce 2f 03 00 	lea    0x32fce(%rip),%rcx        # 436a00 <__libm_floor_dispatch_table_x>
  403a32:	48 8b 0c c1          	mov    (%rcx,%rax,8),%rcx
  403a36:	48 c7 c2 80 74 43 00 	mov    $0x437480,%rdx
  403a3d:	31 c0                	xor    %eax,%eax
  403a3f:	f0 48 0f b1 0a       	lock cmpxchg %rcx,(%rdx)
  403a44:	48 8d 05 b5 ff ff ff 	lea    -0x4b(%rip),%rax        # 403a00 <__libm_floor_dispatch_table_x_init>
  403a4b:	f0 48 0f b1 0a       	lock cmpxchg %rcx,(%rdx)
  403a50:	48 83 c4 10          	add    $0x10,%rsp
  403a54:	5b                   	pop    %rbx
  403a55:	ff 22                	jmpq   *(%rdx)
  403a57:	66 0f 1f 84 00 00 00 	nopw   0x0(%rax,%rax,1)
  403a5e:	00 00 

0000000000403a60 <__libm_floor>:
  403a60:	f3 0f 1e fa          	endbr64 
  403a64:	48 c7 c0 80 74 43 00 	mov    $0x437480,%rax
  403a6b:	ff 20                	jmpq   *(%rax)
  403a6d:	0f 1f 00             	nopl   (%rax)

0000000000403a70 <__libm_log_dispatch_table_x_init>:
  403a70:	f3 0f 1e fa          	endbr64 
  403a74:	53                   	push   %rbx
  403a75:	48 83 ec 10          	sub    $0x10,%rsp
  403a79:	48 c7 c3 c0 7a 44 00 	mov    $0x447ac0,%rbx
  403a80:	8b 03                	mov    (%rbx),%eax
  403a82:	85 c0                	test   %eax,%eax
  403a84:	75 13                	jne    403a99 <__libm_log_dispatch_table_x_init+0x29>
  403a86:	f2 0f 11 44 24 08    	movsd  %xmm0,0x8(%rsp)
  403a8c:	e8 cf 02 00 00       	callq  403d60 <__libm_feature_flag_x_init>
  403a91:	f2 0f 10 44 24 08    	movsd  0x8(%rsp),%xmm0
  403a97:	eb e7                	jmp    403a80 <__libm_log_dispatch_table_x_init+0x10>
  403a99:	48 98                	cltq   
  403a9b:	48 8d 0d de 2f 03 00 	lea    0x32fde(%rip),%rcx        # 436a80 <__libm_log_dispatch_table_x>
  403aa2:	48 8b 0c c1          	mov    (%rcx,%rax,8),%rcx
  403aa6:	48 c7 c2 c0 74 43 00 	mov    $0x4374c0,%rdx
  403aad:	31 c0                	xor    %eax,%eax
  403aaf:	f0 48 0f b1 0a       	lock cmpxchg %rcx,(%rdx)
  403ab4:	48 8d 05 b5 ff ff ff 	lea    -0x4b(%rip),%rax        # 403a70 <__libm_log_dispatch_table_x_init>
  403abb:	f0 48 0f b1 0a       	lock cmpxchg %rcx,(%rdx)
  403ac0:	48 83 c4 10          	add    $0x10,%rsp
  403ac4:	5b                   	pop    %rbx
  403ac5:	ff 22                	jmpq   *(%rdx)
  403ac7:	66 0f 1f 84 00 00 00 	nopw   0x0(%rax,%rax,1)
  403ace:	00 00 

0000000000403ad0 <__libm_log>:
  403ad0:	f3 0f 1e fa          	endbr64 
  403ad4:	48 c7 c0 c0 74 43 00 	mov    $0x4374c0,%rax
  403adb:	ff 20                	jmpq   *(%rax)
  403add:	0f 1f 00             	nopl   (%rax)

0000000000403ae0 <__libm_log10_dispatch_table_x_init>:
  403ae0:	f3 0f 1e fa          	endbr64 
  403ae4:	53                   	push   %rbx
  403ae5:	48 83 ec 10          	sub    $0x10,%rsp
  403ae9:	48 c7 c3 c0 7a 44 00 	mov    $0x447ac0,%rbx
  403af0:	8b 03                	mov    (%rbx),%eax
  403af2:	85 c0                	test   %eax,%eax
  403af4:	75 13                	jne    403b09 <__libm_log10_dispatch_table_x_init+0x29>
  403af6:	f2 0f 11 44 24 08    	movsd  %xmm0,0x8(%rsp)
  403afc:	e8 5f 02 00 00       	callq  403d60 <__libm_feature_flag_x_init>
  403b01:	f2 0f 10 44 24 08    	movsd  0x8(%rsp),%xmm0
  403b07:	eb e7                	jmp    403af0 <__libm_log10_dispatch_table_x_init+0x10>
  403b09:	48 98                	cltq   
  403b0b:	48 8d 0d ee 2f 03 00 	lea    0x32fee(%rip),%rcx        # 436b00 <__libm_log10_dispatch_table_x>
  403b12:	48 8b 0c c1          	mov    (%rcx,%rax,8),%rcx
  403b16:	48 c7 c2 00 75 43 00 	mov    $0x437500,%rdx
  403b1d:	31 c0                	xor    %eax,%eax
  403b1f:	f0 48 0f b1 0a       	lock cmpxchg %rcx,(%rdx)
  403b24:	48 8d 05 b5 ff ff ff 	lea    -0x4b(%rip),%rax        # 403ae0 <__libm_log10_dispatch_table_x_init>
  403b2b:	f0 48 0f b1 0a       	lock cmpxchg %rcx,(%rdx)
  403b30:	48 83 c4 10          	add    $0x10,%rsp
  403b34:	5b                   	pop    %rbx
  403b35:	ff 22                	jmpq   *(%rdx)
  403b37:	66 0f 1f 84 00 00 00 	nopw   0x0(%rax,%rax,1)
  403b3e:	00 00 

0000000000403b40 <__libm_log10>:
  403b40:	f3 0f 1e fa          	endbr64 
  403b44:	48 c7 c0 00 75 43 00 	mov    $0x437500,%rax
  403b4b:	ff 20                	jmpq   *(%rax)
  403b4d:	0f 1f 00             	nopl   (%rax)

0000000000403b50 <__libm_logf_dispatch_table_x_init>:
  403b50:	f3 0f 1e fa          	endbr64 
  403b54:	53                   	push   %rbx
  403b55:	48 83 ec 10          	sub    $0x10,%rsp
  403b59:	48 c7 c3 c0 7a 44 00 	mov    $0x447ac0,%rbx
  403b60:	8b 03                	mov    (%rbx),%eax
  403b62:	85 c0                	test   %eax,%eax
  403b64:	75 13                	jne    403b79 <__libm_logf_dispatch_table_x_init+0x29>
  403b66:	f3 0f 11 44 24 0c    	movss  %xmm0,0xc(%rsp)
  403b6c:	e8 ef 01 00 00       	callq  403d60 <__libm_feature_flag_x_init>
  403b71:	f3 0f 10 44 24 0c    	movss  0xc(%rsp),%xmm0
  403b77:	eb e7                	jmp    403b60 <__libm_logf_dispatch_table_x_init+0x10>
  403b79:	48 98                	cltq   
  403b7b:	48 8d 0d fe 2f 03 00 	lea    0x32ffe(%rip),%rcx        # 436b80 <__libm_logf_dispatch_table_x>
  403b82:	48 8b 0c c1          	mov    (%rcx,%rax,8),%rcx
  403b86:	48 c7 c2 40 75 43 00 	mov    $0x437540,%rdx
  403b8d:	31 c0                	xor    %eax,%eax
  403b8f:	f0 48 0f b1 0a       	lock cmpxchg %rcx,(%rdx)
  403b94:	48 8d 05 b5 ff ff ff 	lea    -0x4b(%rip),%rax        # 403b50 <__libm_logf_dispatch_table_x_init>
  403b9b:	f0 48 0f b1 0a       	lock cmpxchg %rcx,(%rdx)
  403ba0:	48 83 c4 10          	add    $0x10,%rsp
  403ba4:	5b                   	pop    %rbx
  403ba5:	ff 22                	jmpq   *(%rdx)
  403ba7:	66 0f 1f 84 00 00 00 	nopw   0x0(%rax,%rax,1)
  403bae:	00 00 

0000000000403bb0 <__libm_logf>:
  403bb0:	f3 0f 1e fa          	endbr64 
  403bb4:	48 c7 c0 40 75 43 00 	mov    $0x437540,%rax
  403bbb:	ff 20                	jmpq   *(%rax)
  403bbd:	0f 1f 00             	nopl   (%rax)

0000000000403bc0 <__libm_matherr>:
  403bc0:	f3 0f 1e fa          	endbr64 
  403bc4:	e9 27 6c 00 00       	jmpq   40a7f0 <__libm_matherr_ex>
  403bc9:	0f 1f 80 00 00 00 00 	nopl   0x0(%rax)

0000000000403bd0 <__libm_matherrf>:
  403bd0:	f3 0f 1e fa          	endbr64 
  403bd4:	e9 27 6c 00 00       	jmpq   40a800 <__libm_matherrf_ex>
  403bd9:	0f 1f 80 00 00 00 00 	nopl   0x0(%rax)

0000000000403be0 <__libm_matherrl>:
  403be0:	f3 0f 1e fa          	endbr64 
  403be4:	e9 27 6c 00 00       	jmpq   40a810 <__libm_matherrl_ex>
  403be9:	0f 1f 80 00 00 00 00 	nopl   0x0(%rax)

0000000000403bf0 <__libm_pow_dispatch_table_x_init>:
  403bf0:	f3 0f 1e fa          	endbr64 
  403bf4:	53                   	push   %rbx
  403bf5:	48 83 ec 10          	sub    $0x10,%rsp
  403bf9:	48 c7 c3 c0 7a 44 00 	mov    $0x447ac0,%rbx
  403c00:	8b 03                	mov    (%rbx),%eax
  403c02:	85 c0                	test   %eax,%eax
  403c04:	75 1d                	jne    403c23 <__libm_pow_dispatch_table_x_init+0x33>
  403c06:	f2 0f 11 04 24       	movsd  %xmm0,(%rsp)
  403c0b:	f2 0f 11 4c 24 08    	movsd  %xmm1,0x8(%rsp)
  403c11:	e8 4a 01 00 00       	callq  403d60 <__libm_feature_flag_x_init>
  403c16:	f2 0f 10 04 24       	movsd  (%rsp),%xmm0
  403c1b:	f2 0f 10 4c 24 08    	movsd  0x8(%rsp),%xmm1
  403c21:	eb dd                	jmp    403c00 <__libm_pow_dispatch_table_x_init+0x10>
  403c23:	48 98                	cltq   
  403c25:	48 8d 0d d4 2f 03 00 	lea    0x32fd4(%rip),%rcx        # 436c00 <__libm_pow_dispatch_table_x>
  403c2c:	48 8b 0c c1          	mov    (%rcx,%rax,8),%rcx
  403c30:	48 c7 c2 80 75 43 00 	mov    $0x437580,%rdx
  403c37:	31 c0                	xor    %eax,%eax
  403c39:	f0 48 0f b1 0a       	lock cmpxchg %rcx,(%rdx)
  403c3e:	48 8d 05 ab ff ff ff 	lea    -0x55(%rip),%rax        # 403bf0 <__libm_pow_dispatch_table_x_init>
  403c45:	f0 48 0f b1 0a       	lock cmpxchg %rcx,(%rdx)
  403c4a:	48 8b 02             	mov    (%rdx),%rax
  403c4d:	48 83 c4 10          	add    $0x10,%rsp
  403c51:	5b                   	pop    %rbx
  403c52:	ff e0                	jmpq   *%rax
  403c54:	66 66 66 2e 0f 1f 84 	data16 data16 nopw %cs:0x0(%rax,%rax,1)
  403c5b:	00 00 00 00 00 

0000000000403c60 <__libm_pow>:
  403c60:	f3 0f 1e fa          	endbr64 
  403c64:	48 c7 c0 80 75 43 00 	mov    $0x437580,%rax
  403c6b:	48 8b 00             	mov    (%rax),%rax
  403c6e:	ff e0                	jmpq   *%rax

0000000000403c70 <__libm_sin_dispatch_table_x_init>:
  403c70:	f3 0f 1e fa          	endbr64 
  403c74:	53                   	push   %rbx
  403c75:	48 83 ec 10          	sub    $0x10,%rsp
  403c79:	48 c7 c3 c0 7a 44 00 	mov    $0x447ac0,%rbx
  403c80:	8b 03                	mov    (%rbx),%eax
  403c82:	85 c0                	test   %eax,%eax
  403c84:	75 13                	jne    403c99 <__libm_sin_dispatch_table_x_init+0x29>
  403c86:	f2 0f 11 44 24 08    	movsd  %xmm0,0x8(%rsp)
  403c8c:	e8 cf 00 00 00       	callq  403d60 <__libm_feature_flag_x_init>
  403c91:	f2 0f 10 44 24 08    	movsd  0x8(%rsp),%xmm0
  403c97:	eb e7                	jmp    403c80 <__libm_sin_dispatch_table_x_init+0x10>
  403c99:	48 98                	cltq   
  403c9b:	48 8d 0d de 2f 03 00 	lea    0x32fde(%rip),%rcx        # 436c80 <__libm_sin_dispatch_table_x>
  403ca2:	48 8b 0c c1          	mov    (%rcx,%rax,8),%rcx
  403ca6:	48 c7 c2 c0 75 43 00 	mov    $0x4375c0,%rdx
  403cad:	31 c0                	xor    %eax,%eax
  403caf:	f0 48 0f b1 0a       	lock cmpxchg %rcx,(%rdx)
  403cb4:	48 8d 05 b5 ff ff ff 	lea    -0x4b(%rip),%rax        # 403c70 <__libm_sin_dispatch_table_x_init>
  403cbb:	f0 48 0f b1 0a       	lock cmpxchg %rcx,(%rdx)
  403cc0:	48 83 c4 10          	add    $0x10,%rsp
  403cc4:	5b                   	pop    %rbx
  403cc5:	ff 22                	jmpq   *(%rdx)
  403cc7:	66 0f 1f 84 00 00 00 	nopw   0x0(%rax,%rax,1)
  403cce:	00 00 

0000000000403cd0 <__libm_sin>:
  403cd0:	f3 0f 1e fa          	endbr64 
  403cd4:	48 c7 c0 c0 75 43 00 	mov    $0x4375c0,%rax
  403cdb:	ff 20                	jmpq   *(%rax)
  403cdd:	0f 1f 00             	nopl   (%rax)

0000000000403ce0 <__libm_sqrtf_dispatch_table_x_init>:
  403ce0:	f3 0f 1e fa          	endbr64 
  403ce4:	53                   	push   %rbx
  403ce5:	48 83 ec 10          	sub    $0x10,%rsp
  403ce9:	48 c7 c3 c0 7a 44 00 	mov    $0x447ac0,%rbx
  403cf0:	8b 03                	mov    (%rbx),%eax
  403cf2:	85 c0                	test   %eax,%eax
  403cf4:	75 13                	jne    403d09 <__libm_sqrtf_dispatch_table_x_init+0x29>
  403cf6:	f3 0f 11 44 24 0c    	movss  %xmm0,0xc(%rsp)
  403cfc:	e8 5f 00 00 00       	callq  403d60 <__libm_feature_flag_x_init>
  403d01:	f3 0f 10 44 24 0c    	movss  0xc(%rsp),%xmm0
  403d07:	eb e7                	jmp    403cf0 <__libm_sqrtf_dispatch_table_x_init+0x10>
  403d09:	48 98                	cltq   
  403d0b:	48 8d 0d ee 2f 03 00 	lea    0x32fee(%rip),%rcx        # 436d00 <__libm_sqrtf_dispatch_table_x>
  403d12:	48 8b 0c c1          	mov    (%rcx,%rax,8),%rcx
  403d16:	48 c7 c2 00 76 43 00 	mov    $0x437600,%rdx
  403d1d:	31 c0                	xor    %eax,%eax
  403d1f:	f0 48 0f b1 0a       	lock cmpxchg %rcx,(%rdx)
  403d24:	48 8d 05 b5 ff ff ff 	lea    -0x4b(%rip),%rax        # 403ce0 <__libm_sqrtf_dispatch_table_x_init>
  403d2b:	f0 48 0f b1 0a       	lock cmpxchg %rcx,(%rdx)
  403d30:	48 83 c4 10          	add    $0x10,%rsp
  403d34:	5b                   	pop    %rbx
  403d35:	ff 22                	jmpq   *(%rdx)
  403d37:	66 0f 1f 84 00 00 00 	nopw   0x0(%rax,%rax,1)
  403d3e:	00 00 

0000000000403d40 <__libm_sqrtf>:
  403d40:	f3 0f 1e fa          	endbr64 
  403d44:	48 c7 c0 00 76 43 00 	mov    $0x437600,%rax
  403d4b:	ff 20                	jmpq   *(%rax)
  403d4d:	0f 1f 00             	nopl   (%rax)

0000000000403d50 <__libm_feature_flag_init_callback>:
  403d50:	f3 0f 1e fa          	endbr64 
  403d54:	89 f8                	mov    %edi,%eax
  403d56:	c3                   	retq   
  403d57:	66 0f 1f 84 00 00 00 	nopw   0x0(%rax,%rax,1)
  403d5e:	00 00 

0000000000403d60 <__libm_feature_flag_x_init>:
  403d60:	f3 0f 1e fa          	endbr64 
  403d64:	41 56                	push   %r14
  403d66:	53                   	push   %rbx
  403d67:	50                   	push   %rax
  403d68:	48 c7 c1 80 7a 44 00 	mov    $0x447a80,%rcx
  403d6f:	ba 01 00 00 00       	mov    $0x1,%edx
  403d74:	31 c0                	xor    %eax,%eax
  403d76:	f0 0f b1 11          	lock cmpxchg %edx,(%rcx)
  403d7a:	75 58                	jne    403dd4 <__libm_feature_flag_x_init+0x74>
  403d7c:	49 c7 c6 c0 7a 44 00 	mov    $0x447ac0,%r14
  403d83:	41 83 3e 00          	cmpl   $0x0,(%r14)
  403d87:	75 4b                	jne    403dd4 <__libm_feature_flag_x_init+0x74>
  403d89:	48 c7 c1 00 7b 44 00 	mov    $0x447b00,%rcx
  403d90:	48 8b 01             	mov    (%rcx),%rax
  403d93:	48 85 c0             	test   %rax,%rax
  403d96:	75 07                	jne    403d9f <__libm_feature_flag_x_init+0x3f>
  403d98:	e8 b3 98 00 00       	callq  40d650 <__intel_cpu_features_init_x>
  403d9d:	eb f1                	jmp    403d90 <__libm_feature_flag_x_init+0x30>
  403d9f:	48 89 c1             	mov    %rax,%rcx
  403da2:	48 f7 d1             	not    %rcx
  403da5:	bb 0b 00 00 00       	mov    $0xb,%ebx
  403daa:	48 ba 00 00 00 00 00 	movabs $0x1180000000000,%rdx
  403db1:	18 01 00 
  403db4:	48 85 d1             	test   %rdx,%rcx
  403db7:	75 23                	jne    403ddc <__libm_feature_flag_x_init+0x7c>
  403db9:	89 df                	mov    %ebx,%edi
  403dbb:	e8 90 ff ff ff       	callq  403d50 <__libm_feature_flag_init_callback>
  403dc0:	39 d8                	cmp    %ebx,%eax
  403dc2:	89 d9                	mov    %ebx,%ecx
  403dc4:	0f 4c c8             	cmovl  %eax,%ecx
  403dc7:	83 f8 02             	cmp    $0x2,%eax
  403dca:	0f 4c cb             	cmovl  %ebx,%ecx
  403dcd:	31 c0                	xor    %eax,%eax
  403dcf:	f0 41 0f b1 0e       	lock cmpxchg %ecx,(%r14)
  403dd4:	48 83 c4 08          	add    $0x8,%rsp
  403dd8:	5b                   	pop    %rbx
  403dd9:	41 5e                	pop    %r14
  403ddb:	c3                   	retq   
  403ddc:	89 c1                	mov    %eax,%ecx
  403dde:	f7 d1                	not    %ecx
  403de0:	bb 0a 00 00 00       	mov    $0xa,%ebx
  403de5:	f7 c1 00 20 9c 00    	test   $0x9c2000,%ecx
  403deb:	74 cc                	je     403db9 <__libm_feature_flag_x_init+0x59>
  403ded:	bb 09 00 00 00       	mov    $0x9,%ebx
  403df2:	a9 00 00 01 00       	test   $0x10000,%eax
  403df7:	75 c0                	jne    403db9 <__libm_feature_flag_x_init+0x59>
  403df9:	bb 08 00 00 00       	mov    $0x8,%ebx
  403dfe:	a9 00 04 00 00       	test   $0x400,%eax
  403e03:	75 b4                	jne    403db9 <__libm_feature_flag_x_init+0x59>
  403e05:	bb 07 00 00 00       	mov    $0x7,%ebx
  403e0a:	a9 00 02 00 00       	test   $0x200,%eax
  403e0f:	75 a8                	jne    403db9 <__libm_feature_flag_x_init+0x59>
  403e11:	bb 06 00 00 00       	mov    $0x6,%ebx
  403e16:	a9 00 01 00 00       	test   $0x100,%eax
  403e1b:	75 9c                	jne    403db9 <__libm_feature_flag_x_init+0x59>
  403e1d:	bb 05 00 00 00       	mov    $0x5,%ebx
  403e22:	84 c0                	test   %al,%al
  403e24:	78 93                	js     403db9 <__libm_feature_flag_x_init+0x59>
  403e26:	bb 04 00 00 00       	mov    $0x4,%ebx
  403e2b:	a8 40                	test   $0x40,%al
  403e2d:	75 8a                	jne    403db9 <__libm_feature_flag_x_init+0x59>
  403e2f:	bb 03 00 00 00       	mov    $0x3,%ebx
  403e34:	a8 20                	test   $0x20,%al
  403e36:	75 81                	jne    403db9 <__libm_feature_flag_x_init+0x59>
  403e38:	bb 02 00 00 00       	mov    $0x2,%ebx
  403e3d:	a8 02                	test   $0x2,%al
  403e3f:	0f 85 74 ff ff ff    	jne    403db9 <__libm_feature_flag_x_init+0x59>
  403e45:	bb 01 00 00 00       	mov    $0x1,%ebx
  403e4a:	e9 6a ff ff ff       	jmpq   403db9 <__libm_feature_flag_x_init+0x59>
  403e4f:	90                   	nop

0000000000403e50 <__libm_acos_ex>:
  403e50:	f3 0f 1e fa          	endbr64 
  403e54:	48 83 ec 18          	sub    $0x18,%rsp
  403e58:	f2 0f 11 04 24       	movsd  %xmm0,(%rsp)
  403e5d:	f2 0f 10 25 2b c2 00 	movsd  0xc22b(%rip),%xmm4        # 410090 <ABSVALMASK>
  403e64:	00 
  403e65:	f2 0f 10 1d 33 c2 00 	movsd  0xc233(%rip),%xmm3        # 4100a0 <ONEMASK>
  403e6c:	00 
  403e6d:	66 0f 57 ed          	xorpd  %xmm5,%xmm5
  403e71:	f2 0f 10 15 2f c2 00 	movsd  0xc22f(%rip),%xmm2        # 4100a8 <TMASK>
  403e78:	00 
  403e79:	f3 0f 7e c8          	movq   %xmm0,%xmm1
  403e7d:	66 0f 73 d0 2c       	psrlq  $0x2c,%xmm0
  403e82:	66 0f 7e c2          	movd   %xmm0,%edx
  403e86:	f3 0f 7e f9          	movq   %xmm1,%xmm7
  403e8a:	b9 00 20 00 00       	mov    $0x2000,%ecx
  403e8f:	66 0f c4 e9 02       	pinsrw $0x2,%ecx,%xmm5
  403e94:	f3 0f 7e c1          	movq   %xmm1,%xmm0
  403e98:	b8 ff ff 07 00       	mov    $0x7ffff,%eax
  403e9d:	21 d0                	and    %edx,%eax
  403e9f:	2d 00 fb 03 00       	sub    $0x3fb00,%eax
  403ea4:	3d bb 03 00 00       	cmp    $0x3bb,%eax
  403ea9:	0f 83 d2 00 00 00    	jae    403f81 <__libm_acos_ex+0x131>
  403eaf:	f2 0f 59 c9          	mulsd  %xmm1,%xmm1
  403eb3:	81 e2 ff ff 00 00    	and    $0xffff,%edx
  403eb9:	f2 0f 5c d9          	subsd  %xmm1,%xmm3
  403ebd:	f2 0f 51 db          	sqrtsd %xmm3,%xmm3
  403ec1:	66 0f 54 d7          	andpd  %xmm7,%xmm2
  403ec5:	83 e2 fc             	and    $0xfffffffc,%edx
  403ec8:	81 ea 00 fb 00 00    	sub    $0xfb00,%edx
  403ece:	4c 8d 05 db c1 00 00 	lea    0xc1db(%rip),%r8        # 4100b0 <T_table>
  403ed5:	f2 41 0f 10 0c 50    	movsd  (%r8,%rdx,2),%xmm1
  403edb:	66 0f 56 d5          	orpd   %xmm5,%xmm2
  403edf:	4c 8d 05 ca c9 00 00 	lea    0xc9ca(%rip),%r8        # 4108b0 <Tbl_addr>
  403ee6:	66 41 0f 28 24 90    	movapd (%r8,%rdx,4),%xmm4
  403eec:	f3 0f 7e f7          	movq   %xmm7,%xmm6
  403ef0:	f2 0f 58 fa          	addsd  %xmm2,%xmm7
  403ef4:	f2 0f 5c c2          	subsd  %xmm2,%xmm0
  403ef8:	f2 0f 59 f8          	mulsd  %xmm0,%xmm7
  403efc:	f2 0f 59 f1          	mulsd  %xmm1,%xmm6
  403f00:	f2 0f 59 da          	mulsd  %xmm2,%xmm3
  403f04:	f3 0f 7e ce          	movq   %xmm6,%xmm1
  403f08:	f2 0f 58 f3          	addsd  %xmm3,%xmm6
  403f0c:	f2 0f 5e fe          	divsd  %xmm6,%xmm7
  403f10:	f2 0f 10 05 b0 d8 00 	movsd  0xd8b0(%rip),%xmm0        # 4117c8 <cv+0x18>
  403f17:	00 
  403f18:	f2 0f 10 2d 98 d8 00 	movsd  0xd898(%rip),%xmm5        # 4117b8 <cv+0x8>
  403f1f:	00 
  403f20:	f2 0f 5c cb          	subsd  %xmm3,%xmm1
  403f24:	66 0f 73 d2 3f       	psrlq  $0x3f,%xmm2
  403f29:	f3 0f 7e d9          	movq   %xmm1,%xmm3
  403f2d:	66 0f 73 f2 3f       	psllq  $0x3f,%xmm2
  403f32:	f2 0f 59 c9          	mulsd  %xmm1,%xmm1
  403f36:	66 0f 70 d2 44       	pshufd $0x44,%xmm2,%xmm2
  403f3b:	f2 0f 10 35 7d d8 00 	movsd  0xd87d(%rip),%xmm6        # 4117c0 <cv+0x10>
  403f42:	00 
  403f43:	f2 0f 59 d9          	mulsd  %xmm1,%xmm3
  403f47:	f2 0f 59 c1          	mulsd  %xmm1,%xmm0
  403f4b:	66 0f 57 e2          	xorpd  %xmm2,%xmm4
  403f4f:	f2 0f 59 eb          	mulsd  %xmm3,%xmm5
  403f53:	66 0f 5c 25 75 d8 00 	subpd  0xd875(%rip),%xmm4        # 4117d0 <PI_BY_2>
  403f5a:	00 
  403f5b:	f2 0f 59 d9          	mulsd  %xmm1,%xmm3
  403f5f:	f2 0f 58 c6          	addsd  %xmm6,%xmm0
  403f63:	f2 0f 59 c3          	mulsd  %xmm3,%xmm0
  403f67:	f2 0f 5c ec          	subsd  %xmm4,%xmm5
  403f6b:	66 0f 70 e4 ee       	pshufd $0xee,%xmm4,%xmm4
  403f70:	f2 0f 58 c5          	addsd  %xmm5,%xmm0
  403f74:	f2 0f 5c c7          	subsd  %xmm7,%xmm0
  403f78:	f2 0f 5c c4          	subsd  %xmm4,%xmm0
  403f7c:	e9 a6 03 00 00       	jmpq   404327 <__libm_acos_ex+0x4d7>
  403f81:	2d bb 03 00 00       	sub    $0x3bb,%eax
  403f86:	83 f8 41             	cmp    $0x41,%eax
  403f89:	0f 83 29 01 00 00    	jae    4040b8 <__libm_acos_ex+0x268>
  403f8f:	66 0f 73 d7 26       	psrlq  $0x26,%xmm7
  403f94:	66 0f 73 f7 26       	psllq  $0x26,%xmm7
  403f99:	66 0f d7 c0          	pmovmskb %xmm0,%eax
  403f9d:	66 0f 55 e0          	andnpd %xmm0,%xmm4
  403fa1:	f2 0f 5c cf          	subsd  %xmm7,%xmm1
  403fa5:	f3 0f 7e f7          	movq   %xmm7,%xmm6
  403fa9:	f2 0f 59 ff          	mulsd  %xmm7,%xmm7
  403fad:	f2 0f 58 c6          	addsd  %xmm6,%xmm0
  403fb1:	66 0f 56 ec          	orpd   %xmm4,%xmm5
  403fb5:	f2 0f 5c df          	subsd  %xmm7,%xmm3
  403fb9:	f2 0f 59 c1          	mulsd  %xmm1,%xmm0
  403fbd:	f3 0f 7e e3          	movq   %xmm3,%xmm4
  403fc1:	f2 0f 5c d8          	subsd  %xmm0,%xmm3
  403fc5:	f2 0f 51 db          	sqrtsd %xmm3,%xmm3
  403fc9:	25 80 00 00 00       	and    $0x80,%eax
  403fce:	c1 e8 07             	shr    $0x7,%eax
  403fd1:	f7 d8                	neg    %eax
  403fd3:	f3 0f 7e fb          	movq   %xmm3,%xmm7
  403fd7:	66 0f 54 d3          	andpd  %xmm3,%xmm2
  403fdb:	66 0f 73 f3 02       	psllq  $0x2,%xmm3
  403fe0:	66 0f c5 d3 03       	pextrw $0x3,%xmm3,%edx
  403fe5:	66 0f 56 d5          	orpd   %xmm5,%xmm2
  403fe9:	66 0f 6e d8          	movd   %eax,%xmm3
  403fed:	66 0f 70 db 00       	pshufd $0x0,%xmm3,%xmm3
  403ff2:	81 ea c0 fe 00 00    	sub    $0xfec0,%edx
  403ff8:	01 d2                	add    %edx,%edx
  403ffa:	4c 8d 05 af c0 00 00 	lea    0xc0af(%rip),%r8        # 4100b0 <T_table>
  404001:	f2 41 0f 59 3c 90    	mulsd  (%r8,%rdx,4),%xmm7
  404007:	f2 0f 59 f2          	mulsd  %xmm2,%xmm6
  40400b:	f2 0f 59 ca          	mulsd  %xmm2,%xmm1
  40400f:	f2 0f 59 d2          	mulsd  %xmm2,%xmm2
  404013:	f2 0f 5c f7          	subsd  %xmm7,%xmm6
  404017:	66 0f 54 1d c1 d7 00 	andpd  0xd7c1(%rip),%xmm3        # 4117e0 <NEG_PI>
  40401e:	00 
  40401f:	f2 0f 58 f1          	addsd  %xmm1,%xmm6
  404023:	f2 0f 5c e2          	subsd  %xmm2,%xmm4
  404027:	f2 0f 58 ff          	addsd  %xmm7,%xmm7
  40402b:	f2 0f 10 2d 85 d7 00 	movsd  0xd785(%rip),%xmm5        # 4117b8 <cv+0x8>
  404032:	00 
  404033:	f2 0f 5c e0          	subsd  %xmm0,%xmm4
  404037:	f2 0f 58 fe          	addsd  %xmm6,%xmm7
  40403b:	f2 0f 10 05 85 d7 00 	movsd  0xd785(%rip),%xmm0        # 4117c8 <cv+0x18>
  404042:	00 
  404043:	f2 0f 5e e7          	divsd  %xmm7,%xmm4
  404047:	f2 0f 10 15 71 d7 00 	movsd  0xd771(%rip),%xmm2        # 4117c0 <cv+0x10>
  40404e:	00 
  40404f:	4c 8d 05 5a c8 00 00 	lea    0xc85a(%rip),%r8        # 4108b0 <Tbl_addr>
  404056:	66 41 0f 58 1c d0    	addpd  (%r8,%rdx,8),%xmm3
  40405c:	f3 0f 7e ce          	movq   %xmm6,%xmm1
  404060:	f2 0f 59 f6          	mulsd  %xmm6,%xmm6
  404064:	f2 0f 59 c6          	mulsd  %xmm6,%xmm0
  404068:	f2 0f 59 ce          	mulsd  %xmm6,%xmm1
  40406c:	f2 0f 59 e9          	mulsd  %xmm1,%xmm5
  404070:	f2 0f 59 ce          	mulsd  %xmm6,%xmm1
  404074:	f2 0f 58 c2          	addsd  %xmm2,%xmm0
  404078:	66 0f ef f6          	pxor   %xmm6,%xmm6
  40407c:	f2 0f 59 c1          	mulsd  %xmm1,%xmm0
  404080:	f2 0f 58 eb          	addsd  %xmm3,%xmm5
  404084:	f2 0f 58 c5          	addsd  %xmm5,%xmm0
  404088:	25 00 80 00 00       	and    $0x8000,%eax
  40408d:	66 0f c4 f0 03       	pinsrw $0x3,%eax,%xmm6
  404092:	f3 0f 7e ec          	movq   %xmm4,%xmm5
  404096:	66 0f 70 db ee       	pshufd $0xee,%xmm3,%xmm3
  40409b:	f2 0f 58 e3          	addsd  %xmm3,%xmm4
  40409f:	f2 0f 5c dc          	subsd  %xmm4,%xmm3
  4040a3:	f2 0f 58 eb          	addsd  %xmm3,%xmm5
  4040a7:	f2 0f 58 c5          	addsd  %xmm5,%xmm0
  4040ab:	f2 0f 58 c4          	addsd  %xmm4,%xmm0
  4040af:	66 0f 57 c6          	xorpd  %xmm6,%xmm0
  4040b3:	e9 6f 02 00 00       	jmpq   404327 <__libm_acos_ex+0x4d7>
  4040b8:	05 bb 3b 00 00       	add    $0x3bbb,%eax
  4040bd:	3d 00 38 00 00       	cmp    $0x3800,%eax
  4040c2:	0f 83 84 00 00 00    	jae    40414c <__libm_acos_ex+0x2fc>
  4040c8:	66 0f 14 c0          	unpcklpd %xmm0,%xmm0
  4040cc:	66 0f 28 35 1c d7 00 	movapd 0xd71c(%rip),%xmm6        # 4117f0 <cv2>
  4040d3:	00 
  4040d4:	66 0f 14 c8          	unpcklpd %xmm0,%xmm1
  4040d8:	66 0f 28 15 20 d7 00 	movapd 0xd720(%rip),%xmm2        # 411800 <cv2+0x10>
  4040df:	00 
  4040e0:	66 0f 28 25 28 d7 00 	movapd 0xd728(%rip),%xmm4        # 411810 <cv2+0x20>
  4040e7:	00 
  4040e8:	66 0f 59 c0          	mulpd  %xmm0,%xmm0
  4040ec:	66 0f 28 2d dc d6 00 	movapd 0xd6dc(%rip),%xmm5        # 4117d0 <PI_BY_2>
  4040f3:	00 
  4040f4:	66 0f 59 c8          	mulpd  %xmm0,%xmm1
  4040f8:	66 0f 59 f0          	mulpd  %xmm0,%xmm6
  4040fc:	66 0f 59 c0          	mulpd  %xmm0,%xmm0
  404100:	f3 0f 7e d9          	movq   %xmm1,%xmm3
  404104:	f2 0f 59 c9          	mulsd  %xmm1,%xmm1
  404108:	66 0f 58 f2          	addpd  %xmm2,%xmm6
  40410c:	66 0f 59 e0          	mulpd  %xmm0,%xmm4
  404110:	f2 0f 59 cb          	mulsd  %xmm3,%xmm1
  404114:	66 0f 58 f4          	addpd  %xmm4,%xmm6
  404118:	66 0f 70 c5 ee       	pshufd $0xee,%xmm5,%xmm0
  40411d:	66 0f 59 ce          	mulpd  %xmm6,%xmm1
  404121:	66 0f 70 f5 ee       	pshufd $0xee,%xmm5,%xmm6
  404126:	f2 0f 5c c7          	subsd  %xmm7,%xmm0
  40412a:	66 0f 70 d1 ee       	pshufd $0xee,%xmm1,%xmm2
  40412f:	f2 0f 5c e9          	subsd  %xmm1,%xmm5
  404133:	f2 0f 5c f0          	subsd  %xmm0,%xmm6
  404137:	f2 0f 5c ea          	subsd  %xmm2,%xmm5
  40413b:	f2 0f 5c fe          	subsd  %xmm6,%xmm7
  40413f:	f2 0f 5c ef          	subsd  %xmm7,%xmm5
  404143:	f2 0f 58 c5          	addsd  %xmm5,%xmm0
  404147:	e9 db 01 00 00       	jmpq   404327 <__libm_acos_ex+0x4d7>
  40414c:	2d fc 3b 00 00       	sub    $0x3bfc,%eax
  404151:	83 f8 04             	cmp    $0x4,%eax
  404154:	0f 83 e8 00 00 00    	jae    404242 <__libm_acos_ex+0x3f2>
  40415a:	66 0f 57 f6          	xorpd  %xmm6,%xmm6
  40415e:	66 0f 54 3d 2a bf 00 	andpd  0xbf2a(%rip),%xmm7        # 410090 <ABSVALMASK>
  404165:	00 
  404166:	f2 0f 10 25 c2 d6 00 	movsd  0xd6c2(%rip),%xmm4        # 411830 <ONE_BY_2>
  40416d:	00 
  40416e:	66 0f 28 0d 7a d6 00 	movapd 0xd67a(%rip),%xmm1        # 4117f0 <cv2>
  404175:	00 
  404176:	f2 0f 59 fc          	mulsd  %xmm4,%xmm7
  40417a:	66 0f 28 15 7e d6 00 	movapd 0xd67e(%rip),%xmm2        # 411800 <cv2+0x10>
  404181:	00 
  404182:	f2 0f 5c e7          	subsd  %xmm7,%xmm4
  404186:	66 0f 28 1d 82 d6 00 	movapd 0xd682(%rip),%xmm3        # 411810 <cv2+0x20>
  40418d:	00 
  40418e:	66 0f 70 fc 44       	pshufd $0x44,%xmm4,%xmm7
  404193:	f2 0f 51 e4          	sqrtsd %xmm4,%xmm4
  404197:	66 0f 59 cf          	mulpd  %xmm7,%xmm1
  40419b:	66 0f 70 ef 44       	pshufd $0x44,%xmm7,%xmm5
  4041a0:	66 0f c5 c0 03       	pextrw $0x3,%xmm0,%eax
  4041a5:	66 0f 59 ff          	mulpd  %xmm7,%xmm7
  4041a9:	66 0f 58 d1          	addpd  %xmm1,%xmm2
  4041ad:	f2 0f 10 0d 8b d6 00 	movsd  0xd68b(%rip),%xmm1        # 411840 <HALFMASK>
  4041b4:	00 
  4041b5:	66 0f 59 df          	mulpd  %xmm7,%xmm3
  4041b9:	f2 0f c2 c6 01       	cmpltsd %xmm6,%xmm0
  4041be:	f2 0f 59 fd          	mulsd  %xmm5,%xmm7
  4041c2:	66 0f 58 d3          	addpd  %xmm3,%xmm2
  4041c6:	66 0f 70 c0 44       	pshufd $0x44,%xmm0,%xmm0
  4041cb:	f2 0f 59 d7          	mulsd  %xmm7,%xmm2
  4041cf:	66 0f 54 05 09 d6 00 	andpd  0xd609(%rip),%xmm0        # 4117e0 <NEG_PI>
  4041d6:	00 
  4041d7:	66 0f 59 d5          	mulpd  %xmm5,%xmm2
  4041db:	66 0f 54 cc          	andpd  %xmm4,%xmm1
  4041df:	66 0f 70 dc 44       	pshufd $0x44,%xmm4,%xmm3
  4041e4:	f2 0f 5c e1          	subsd  %xmm1,%xmm4
  4041e8:	f2 0f 58 db          	addsd  %xmm3,%xmm3
  4041ec:	f2 0f 59 c9          	mulsd  %xmm1,%xmm1
  4041f0:	f2 0f 5c dc          	subsd  %xmm4,%xmm3
  4041f4:	f2 0f 5c e9          	subsd  %xmm1,%xmm5
  4041f8:	f2 0f 59 e3          	mulsd  %xmm3,%xmm4
  4041fc:	66 0f 70 db ee       	pshufd $0xee,%xmm3,%xmm3
  404201:	f2 0f 5c ec          	subsd  %xmm4,%xmm5
  404205:	f2 0f 5e eb          	divsd  %xmm3,%xmm5
  404209:	66 0f 58 db          	addpd  %xmm3,%xmm3
  40420d:	66 0f 59 d3          	mulpd  %xmm3,%xmm2
  404211:	66 0f 70 e2 ee       	pshufd $0xee,%xmm2,%xmm4
  404216:	f2 0f 58 d0          	addsd  %xmm0,%xmm2
  40421a:	25 00 80 00 00       	and    $0x8000,%eax
  40421f:	66 0f c4 f0 03       	pinsrw $0x3,%eax,%xmm6
  404224:	66 0f 70 c0 ee       	pshufd $0xee,%xmm0,%xmm0
  404229:	f2 0f 58 d4          	addsd  %xmm4,%xmm2
  40422d:	f2 0f 58 d5          	addsd  %xmm5,%xmm2
  404231:	f2 0f 58 d3          	addsd  %xmm3,%xmm2
  404235:	f2 0f 58 c2          	addsd  %xmm2,%xmm0
  404239:	66 0f 57 c6          	xorpd  %xmm6,%xmm0
  40423d:	e9 e5 00 00 00       	jmpq   404327 <__libm_acos_ex+0x4d7>
  404242:	05 fc fe 03 00       	add    $0x3fefc,%eax
  404247:	3d 00 ff 03 00       	cmp    $0x3ff00,%eax
  40424c:	0f 82 90 00 00 00    	jb     4042e2 <__libm_acos_ex+0x492>
  404252:	66 0f 7e f9          	movd   %xmm7,%ecx
  404256:	66 0f 73 d7 20       	psrlq  $0x20,%xmm7
  40425b:	66 0f 7e fa          	movd   %xmm7,%edx
  40425f:	81 e2 ff ff ff 7f    	and    $0x7fffffff,%edx
  404265:	b8 00 00 f0 3f       	mov    $0x3ff00000,%eax
  40426a:	29 d0                	sub    %edx,%eax
  40426c:	09 c8                	or     %ecx,%eax
  40426e:	83 f8 00             	cmp    $0x0,%eax
  404271:	74 3e                	je     4042b1 <__libm_acos_ex+0x461>
  404273:	f2 0f 10 14 24       	movsd  (%rsp),%xmm2
  404278:	66 0f 7e d2          	movd   %xmm2,%edx
  40427c:	66 0f 73 d2 20       	psrlq  $0x20,%xmm2
  404281:	66 0f 7e d1          	movd   %xmm2,%ecx
  404285:	81 e1 ff ff ff 7f    	and    $0x7fffffff,%ecx
  40428b:	83 ea 01             	sub    $0x1,%edx
  40428e:	81 d9 00 00 f0 7f    	sbb    $0x7ff00000,%ecx
  404294:	83 f9 00             	cmp    $0x0,%ecx
  404297:	7d 5f                	jge    4042f8 <__libm_acos_ex+0x4a8>
  404299:	66 0f 57 c9          	xorpd  %xmm1,%xmm1
  40429d:	66 0f 57 c0          	xorpd  %xmm0,%xmm0
  4042a1:	ba f0 7f 00 00       	mov    $0x7ff0,%edx
  4042a6:	66 0f c4 ca 03       	pinsrw $0x3,%edx,%xmm1
  4042ab:	f2 0f 59 c1          	mulsd  %xmm1,%xmm0
  4042af:	eb 51                	jmp    404302 <__libm_acos_ex+0x4b2>
  4042b1:	66 0f c5 d7 01       	pextrw $0x1,%xmm7,%edx
  4042b6:	c1 ea 0f             	shr    $0xf,%edx
  4042b9:	f7 da                	neg    %edx
  4042bb:	66 0f 6e fa          	movd   %edx,%xmm7
  4042bf:	66 0f 70 ff 00       	pshufd $0x0,%xmm7,%xmm7
  4042c4:	f2 0f 10 15 84 d5 00 	movsd  0xd584(%rip),%xmm2        # 411850 <PI>
  4042cb:	00 
  4042cc:	f2 0f 10 05 84 d5 00 	movsd  0xd584(%rip),%xmm0        # 411858 <PI+0x8>
  4042d3:	00 
  4042d4:	66 0f 54 d7          	andpd  %xmm7,%xmm2
  4042d8:	66 0f 54 c7          	andpd  %xmm7,%xmm0
  4042dc:	f2 0f 58 c2          	addsd  %xmm2,%xmm0
  4042e0:	eb 45                	jmp    404327 <__libm_acos_ex+0x4d7>
  4042e2:	f2 0f 10 15 e6 d4 00 	movsd  0xd4e6(%rip),%xmm2        # 4117d0 <PI_BY_2>
  4042e9:	00 
  4042ea:	f2 0f 10 05 e6 d4 00 	movsd  0xd4e6(%rip),%xmm0        # 4117d8 <PI_BY_2+0x8>
  4042f1:	00 
  4042f2:	f2 0f 58 c2          	addsd  %xmm2,%xmm0
  4042f6:	eb 2f                	jmp    404327 <__libm_acos_ex+0x4d7>
  4042f8:	66 0f 57 f6          	xorpd  %xmm6,%xmm6
  4042fc:	f2 0f 58 c6          	addsd  %xmm6,%xmm0
  404300:	eb 25                	jmp    404327 <__libm_acos_ex+0x4d7>
  404302:	66 0f d6 44 24 10    	movq   %xmm0,0x10(%rsp)
  404308:	c7 44 24 0c 3a 00 00 	movl   $0x3a,0xc(%rsp)
  40430f:	00 
  404310:	f2 0f 10 0c 24       	movsd  (%rsp),%xmm1
  404315:	f2 0f 10 14 24       	movsd  (%rsp),%xmm2
  40431a:	8b 4c 24 0c          	mov    0xc(%rsp),%ecx
  40431e:	66 0f 6e d9          	movd   %ecx,%xmm3
  404322:	e8 79 f3 ff ff       	callq  4036a0 <__libm_error_support_wrapper_x64>
  404327:	f2 0f 11 44 24 10    	movsd  %xmm0,0x10(%rsp)
  40432d:	48 83 c4 18          	add    $0x18,%rsp
  404331:	c3                   	retq   
  404332:	66 2e 0f 1f 84 00 00 	nopw   %cs:0x0(%rax,%rax,1)
  404339:	00 00 00 
  40433c:	0f 1f 40 00          	nopl   0x0(%rax)

0000000000404340 <__libm_atan2_ex>:
  404340:	f3 0f 1e fa          	endbr64 
  404344:	48 83 ec 28          	sub    $0x28,%rsp
  404348:	f2 0f 11 44 24 18    	movsd  %xmm0,0x18(%rsp)
  40434e:	f2 0f 11 4c 24 10    	movsd  %xmm1,0x10(%rsp)
  404354:	66 0f c5 c0 03       	pextrw $0x3,%xmm0,%eax
  404359:	25 f0 7f 00 00       	and    $0x7ff0,%eax
  40435e:	2d 70 38 00 00       	sub    $0x3870,%eax
  404363:	3d 00 0f 00 00       	cmp    $0xf00,%eax
  404368:	0f 87 e8 02 00 00    	ja     404656 <__libm_atan2_ex+0x316>
  40436e:	66 0f c5 c1 03       	pextrw $0x3,%xmm1,%eax
  404373:	25 f0 7f 00 00       	and    $0x7ff0,%eax
  404378:	2d 70 38 00 00       	sub    $0x3870,%eax
  40437d:	3d 00 0f 00 00       	cmp    $0xf00,%eax
  404382:	0f 87 ce 02 00 00    	ja     404656 <__libm_atan2_ex+0x316>
  404388:	66 0f 14 c1          	unpcklpd %xmm1,%xmm0
  40438c:	66 0f 57 ed          	xorpd  %xmm5,%xmm5
  404390:	66 0f 57 db          	xorpd  %xmm3,%xmm3
  404394:	b8 00 08 00 00       	mov    $0x800,%eax
  404399:	66 0f c4 e8 03       	pinsrw $0x3,%eax,%xmm5
  40439e:	66 0f fd e9          	paddw  %xmm1,%xmm5
  4043a2:	66 0f 73 d5 1d       	psrlq  $0x1d,%xmm5
  4043a7:	f3 0f 53 dd          	rcpss  %xmm5,%xmm3
  4043ab:	66 0f 57 e4          	xorpd  %xmm4,%xmm4
  4043af:	b9 00 38 00 00       	mov    $0x3800,%ecx
  4043b4:	66 0f c4 e1 03       	pinsrw $0x3,%ecx,%xmm4
  4043b9:	66 0f 73 f3 1d       	psllq  $0x1d,%xmm3
  4043be:	66 0f fd dc          	paddw  %xmm4,%xmm3
  4043c2:	f2 0f 59 d8          	mulsd  %xmm0,%xmm3
  4043c6:	66 0f 57 d2          	xorpd  %xmm2,%xmm2
  4043ca:	66 0f 57 f6          	xorpd  %xmm6,%xmm6
  4043ce:	66 0f 57 ff          	xorpd  %xmm7,%xmm7
  4043d2:	b8 00 80 00 00       	mov    $0x8000,%eax
  4043d7:	66 0f c4 f0 02       	pinsrw $0x2,%eax,%xmm6
  4043dc:	b9 ff 7f 00 00       	mov    $0x7fff,%ecx
  4043e1:	66 0f c4 f9 03       	pinsrw $0x3,%ecx,%xmm7
  4043e6:	66 0f fe de          	paddd  %xmm6,%xmm3
  4043ea:	66 0f 54 df          	andpd  %xmm7,%xmm3
  4043ee:	f3 0f 7e eb          	movq   %xmm3,%xmm5
  4043f2:	66 0f c5 c3 03       	pextrw $0x3,%xmm3,%eax
  4043f7:	b9 40 40 00 00       	mov    $0x4040,%ecx
  4043fc:	66 0f c4 d1 03       	pinsrw $0x3,%ecx,%xmm2
  404401:	f2 0f 5d da          	minsd  %xmm2,%xmm3
  404405:	66 0f 50 d0          	movmskpd %xmm0,%edx
  404409:	66 0f 73 f0 01       	psllq  $0x1,%xmm0
  40440e:	66 0f 73 d0 01       	psrlq  $0x1,%xmm0
  404413:	f2 0f c2 ea 02       	cmplesd %xmm2,%xmm5
  404418:	66 0f 73 f1 01       	psllq  $0x1,%xmm1
  40441d:	66 0f 73 d1 01       	psrlq  $0x1,%xmm1
  404422:	f3 0f 7e f1          	movq   %xmm1,%xmm6
  404426:	f3 0f 7e f9          	movq   %xmm1,%xmm7
  40442a:	f3 0f 7e d0          	movq   %xmm0,%xmm2
  40442e:	b9 00 00 00 00       	mov    $0x0,%ecx
  404433:	66 0f c4 f1 00       	pinsrw $0x0,%ecx,%xmm6
  404438:	f2 0f 5c fe          	subsd  %xmm6,%xmm7
  40443c:	f3 0f 7e e0          	movq   %xmm0,%xmm4
  404440:	f2 0f 59 f3          	mulsd  %xmm3,%xmm6
  404444:	f2 0f 59 e3          	mulsd  %xmm3,%xmm4
  404448:	f2 0f 59 fb          	mulsd  %xmm3,%xmm7
  40444c:	66 0f 54 c5          	andpd  %xmm5,%xmm0
  404450:	f2 0f 5c c6          	subsd  %xmm6,%xmm0
  404454:	66 0f 54 cd          	andpd  %xmm5,%xmm1
  404458:	f2 0f 58 e1          	addsd  %xmm1,%xmm4
  40445c:	f2 0f 5c c7          	subsd  %xmm7,%xmm0
  404460:	25 f0 7f 00 00       	and    $0x7ff0,%eax
  404465:	2d 9e 3f 00 00       	sub    $0x3f9e,%eax
  40446a:	3d 61 04 00 00       	cmp    $0x461,%eax
  40446f:	0f 87 b7 00 00 00    	ja     40452c <__libm_atan2_ex+0x1ec>
  404475:	f2 0f 5e c4          	divsd  %xmm4,%xmm0
  404479:	66 0f c5 cb 03       	pextrw $0x3,%xmm3,%ecx
  40447e:	f2 0f 10 15 da d3 00 	movsd  0xd3da(%rip),%xmm2        # 411860 <a2>
  404485:	00 
  404486:	f2 0f 10 1d e2 d3 00 	movsd  0xd3e2(%rip),%xmm3        # 411870 <b2>
  40448d:	00 
  40448e:	66 0f c5 c5 00       	pextrw $0x0,%xmm5,%eax
  404493:	01 d2                	add    %edx,%edx
  404495:	4c 8d 05 e4 d3 00 00 	lea    0xd3e4(%rip),%r8        # 411880 <P_TBL>
  40449c:	66 41 0f 28 34 d0    	movapd (%r8,%rdx,8),%xmm6
  4044a2:	4c 8d 05 17 d4 00 00 	lea    0xd417(%rip),%r8        # 4118c0 <SGN_TBL>
  4044a9:	66 41 0f 28 0c d0    	movapd (%r8,%rdx,8),%xmm1
  4044af:	81 e9 9e 3f 00 00    	sub    $0x3f9e,%ecx
  4044b5:	f7 d0                	not    %eax
  4044b7:	83 e0 01             	and    $0x1,%eax
  4044ba:	01 c1                	add    %eax,%ecx
  4044bc:	01 c9                	add    %ecx,%ecx
  4044be:	4c 8d 05 3b d4 00 00 	lea    0xd43b(%rip),%r8        # 411900 <ATAN_TBL>
  4044c5:	66 41 0f 28 2c c8    	movapd (%r8,%rcx,8),%xmm5
  4044cb:	66 0f 57 e9          	xorpd  %xmm1,%xmm5
  4044cf:	66 0f 58 ee          	addpd  %xmm6,%xmm5
  4044d3:	f3 0f 7e f5          	movq   %xmm5,%xmm6
  4044d7:	66 0f 15 ed          	unpckhpd %xmm5,%xmm5
  4044db:	66 0f 57 c8          	xorpd  %xmm0,%xmm1
  4044df:	f3 0f 7e e1          	movq   %xmm1,%xmm4
  4044e3:	f2 0f 59 c0          	mulsd  %xmm0,%xmm0
  4044e7:	f2 0f 59 d0          	mulsd  %xmm0,%xmm2
  4044eb:	f2 0f 58 d8          	addsd  %xmm0,%xmm3
  4044ef:	f2 0f 58 ce          	addsd  %xmm6,%xmm1
  4044f3:	f2 0f 5c f1          	subsd  %xmm1,%xmm6
  4044f7:	f2 0f 58 f4          	addsd  %xmm4,%xmm6
  4044fb:	f2 0f 58 15 65 d3 00 	addsd  0xd365(%rip),%xmm2        # 411868 <a2+0x8>
  404502:	00 
  404503:	f2 0f 59 d8          	mulsd  %xmm0,%xmm3
  404507:	f2 0f 59 c4          	mulsd  %xmm4,%xmm0
  40450b:	f2 0f 58 f5          	addsd  %xmm5,%xmm6
  40450f:	f2 0f 59 c2          	mulsd  %xmm2,%xmm0
  404513:	f2 0f 58 1d 5d d3 00 	addsd  0xd35d(%rip),%xmm3        # 411878 <b2+0x8>
  40451a:	00 
  40451b:	f2 0f 59 c3          	mulsd  %xmm3,%xmm0
  40451f:	f2 0f 58 c6          	addsd  %xmm6,%xmm0
  404523:	f2 0f 58 c1          	addsd  %xmm1,%xmm0
  404527:	e9 86 03 00 00       	jmpq   4048b2 <__libm_atan2_ex+0x572>
  40452c:	05 ae 03 00 00       	add    $0x3ae,%eax
  404531:	3d ae 03 00 00       	cmp    $0x3ae,%eax
  404536:	0f 87 ad 00 00 00    	ja     4045e9 <__libm_atan2_ex+0x2a9>
  40453c:	66 0f 57 e4          	xorpd  %xmm4,%xmm4
  404540:	b9 f0 3f 00 00       	mov    $0x3ff0,%ecx
  404545:	66 0f c4 e1 03       	pinsrw $0x3,%ecx,%xmm4
  40454a:	f2 0f 5e e1          	divsd  %xmm1,%xmm4
  40454e:	01 d2                	add    %edx,%edx
  404550:	4c 8d 05 69 d3 00 00 	lea    0xd369(%rip),%r8        # 4118c0 <SGN_TBL>
  404557:	66 41 0f 28 34 d0    	movapd (%r8,%rdx,8),%xmm6
  40455d:	66 0f 14 db          	unpcklpd %xmm3,%xmm3
  404561:	66 0f 57 c6          	xorpd  %xmm6,%xmm0
  404565:	66 0f 57 d6          	xorpd  %xmm6,%xmm2
  404569:	66 0f 57 de          	xorpd  %xmm6,%xmm3
  40456d:	4c 8d 05 cc dd 00 00 	lea    0xddcc(%rip),%r8        # 412340 <P_TBL2>
  404574:	66 41 0f 28 3c d0    	movapd (%r8,%rdx,8),%xmm7
  40457a:	f2 0f 10 0d de d2 00 	movsd  0xd2de(%rip),%xmm1        # 411860 <a2>
  404581:	00 
  404582:	f2 0f 10 2d e6 d2 00 	movsd  0xd2e6(%rip),%xmm5        # 411870 <b2>
  404589:	00 
  40458a:	4c 8d 05 ef dd 00 00 	lea    0xddef(%rip),%r8        # 412380 <SELECT_B>
  404591:	66 41 0f 54 1c d0    	andpd  (%r8,%rdx,8),%xmm3
  404597:	f2 0f 59 d4          	mulsd  %xmm4,%xmm2
  40459b:	f2 0f 59 c4          	mulsd  %xmm4,%xmm0
  40459f:	f3 0f 7e f2          	movq   %xmm2,%xmm6
  4045a3:	f2 0f 59 d2          	mulsd  %xmm2,%xmm2
  4045a7:	f2 0f 59 ca          	mulsd  %xmm2,%xmm1
  4045ab:	f2 0f 58 ea          	addsd  %xmm2,%xmm5
  4045af:	f2 0f 59 f2          	mulsd  %xmm2,%xmm6
  4045b3:	f2 0f 58 0d ad d2 00 	addsd  0xd2ad(%rip),%xmm1        # 411868 <a2+0x8>
  4045ba:	00 
  4045bb:	f2 0f 59 ea          	mulsd  %xmm2,%xmm5
  4045bf:	f2 0f 58 f8          	addsd  %xmm0,%xmm7
  4045c3:	66 0f 58 fb          	addpd  %xmm3,%xmm7
  4045c7:	f2 0f 59 ce          	mulsd  %xmm6,%xmm1
  4045cb:	f2 0f 58 2d a5 d2 00 	addsd  0xd2a5(%rip),%xmm5        # 411878 <b2+0x8>
  4045d2:	00 
  4045d3:	f2 0f 59 e9          	mulsd  %xmm1,%xmm5
  4045d7:	f2 0f 58 ef          	addsd  %xmm7,%xmm5
  4045db:	66 0f 70 c7 ee       	pshufd $0xee,%xmm7,%xmm0
  4045e0:	f2 0f 58 c5          	addsd  %xmm5,%xmm0
  4045e4:	e9 c9 02 00 00       	jmpq   4048b2 <__libm_atan2_ex+0x572>
  4045e9:	f2 0f 10 4c 24 10    	movsd  0x10(%rsp),%xmm1
  4045ef:	f2 0f 10 44 24 18    	movsd  0x18(%rsp),%xmm0
  4045f5:	66 0f c5 c1 03       	pextrw $0x3,%xmm1,%eax
  4045fa:	25 f0 7f 00 00       	and    $0x7ff0,%eax
  4045ff:	66 0f c5 c8 03       	pextrw $0x3,%xmm0,%ecx
  404604:	81 e1 f0 7f 00 00    	and    $0x7ff0,%ecx
  40460a:	39 c1                	cmp    %eax,%ecx
  40460c:	7f 2f                	jg     40463d <__libm_atan2_ex+0x2fd>
  40460e:	66 0f c5 c9 03       	pextrw $0x3,%xmm1,%ecx
  404613:	81 f9 ff 7f 00 00    	cmp    $0x7fff,%ecx
  404619:	7f 09                	jg     404624 <__libm_atan2_ex+0x2e4>
  40461b:	f2 0f 5e c1          	divsd  %xmm1,%xmm0
  40461f:	e9 8e 02 00 00       	jmpq   4048b2 <__libm_atan2_ex+0x572>
  404624:	66 0f 54 05 94 dd 00 	andpd  0xdd94(%rip),%xmm0        # 4123c0 <SGNMASK>
  40462b:	00 
  40462c:	f2 0f 10 15 9c dd 00 	movsd  0xdd9c(%rip),%xmm2        # 4123d0 <pi_table>
  404633:	00 
  404634:	66 0f 57 c2          	xorpd  %xmm2,%xmm0
  404638:	e9 75 02 00 00       	jmpq   4048b2 <__libm_atan2_ex+0x572>
  40463d:	66 0f 54 05 7b dd 00 	andpd  0xdd7b(%rip),%xmm0        # 4123c0 <SGNMASK>
  404644:	00 
  404645:	f2 0f 10 15 93 dd 00 	movsd  0xdd93(%rip),%xmm2        # 4123e0 <pi2_table>
  40464c:	00 
  40464d:	66 0f 57 c2          	xorpd  %xmm2,%xmm0
  404651:	e9 5c 02 00 00       	jmpq   4048b2 <__libm_atan2_ex+0x572>
  404656:	66 0f c5 c8 03       	pextrw $0x3,%xmm0,%ecx
  40465b:	81 e1 f0 7f 00 00    	and    $0x7ff0,%ecx
  404661:	66 0f c5 c1 03       	pextrw $0x3,%xmm1,%eax
  404666:	25 f0 7f 00 00       	and    $0x7ff0,%eax
  40466b:	81 f9 f0 7f 00 00    	cmp    $0x7ff0,%ecx
  404671:	0f 84 a5 00 00 00    	je     40471c <__libm_atan2_ex+0x3dc>
  404677:	3d f0 7f 00 00       	cmp    $0x7ff0,%eax
  40467c:	0f 84 63 01 00 00    	je     4047e5 <__libm_atan2_ex+0x4a5>
  404682:	f2 0f 10 1d 66 dd 00 	movsd  0xdd66(%rip),%xmm3        # 4123f0 <POW55>
  404689:	00 
  40468a:	ba 00 04 00 00       	mov    $0x400,%edx
  40468f:	f2 0f 10 25 61 dd 00 	movsd  0xdd61(%rip),%xmm4        # 4123f8 <INVEXPMASK>
  404696:	00 
  404697:	66 0f 57 f6          	xorpd  %xmm6,%xmm6
  40469b:	f2 0f 10 3d 5d dd 00 	movsd  0xdd5d(%rip),%xmm7        # 412400 <EXPMASK>
  4046a2:	00 
  4046a3:	83 f9 00             	cmp    $0x0,%ecx
  4046a6:	74 35                	je     4046dd <__libm_atan2_ex+0x39d>
  4046a8:	83 f8 00             	cmp    $0x0,%eax
  4046ab:	74 50                	je     4046fd <__libm_atan2_ex+0x3bd>
  4046ad:	01 ca                	add    %ecx,%edx
  4046af:	29 c2                	sub    %eax,%edx
  4046b1:	81 fa 00 08 00 00    	cmp    $0x800,%edx
  4046b7:	0f 87 2c ff ff ff    	ja     4045e9 <__libm_atan2_ex+0x2a9>
  4046bd:	81 c2 f0 3b 00 00    	add    $0x3bf0,%edx
  4046c3:	66 0f c4 f2 03       	pinsrw $0x3,%edx,%xmm6
  4046c8:	66 0f 54 c4          	andpd  %xmm4,%xmm0
  4046cc:	66 0f 54 cc          	andpd  %xmm4,%xmm1
  4046d0:	66 0f 56 c6          	orpd   %xmm6,%xmm0
  4046d4:	66 0f 56 cf          	orpd   %xmm7,%xmm1
  4046d8:	e9 ab fc ff ff       	jmpq   404388 <__libm_atan2_ex+0x48>
  4046dd:	81 ea 70 03 00 00    	sub    $0x370,%edx
  4046e3:	f2 0f 59 c3          	mulsd  %xmm3,%xmm0
  4046e7:	66 0f c5 c8 03       	pextrw $0x3,%xmm0,%ecx
  4046ec:	81 e1 f0 7f 00 00    	and    $0x7ff0,%ecx
  4046f2:	83 f9 00             	cmp    $0x0,%ecx
  4046f5:	0f 84 3a 01 00 00    	je     404835 <__libm_atan2_ex+0x4f5>
  4046fb:	eb ab                	jmp    4046a8 <__libm_atan2_ex+0x368>
  4046fd:	81 c2 70 03 00 00    	add    $0x370,%edx
  404703:	f2 0f 59 cb          	mulsd  %xmm3,%xmm1
  404707:	66 0f c5 c1 03       	pextrw $0x3,%xmm1,%eax
  40470c:	25 f0 7f 00 00       	and    $0x7ff0,%eax
  404711:	83 f8 00             	cmp    $0x0,%eax
  404714:	0f 84 50 01 00 00    	je     40486a <__libm_atan2_ex+0x52a>
  40471a:	eb 91                	jmp    4046ad <__libm_atan2_ex+0x36d>
  40471c:	66 0f 7e c2          	movd   %xmm0,%edx
  404720:	f3 0f 7e d0          	movq   %xmm0,%xmm2
  404724:	66 0f 73 d2 20       	psrlq  $0x20,%xmm2
  404729:	66 0f 7e d1          	movd   %xmm2,%ecx
  40472d:	81 e1 ff ff 0f 00    	and    $0xfffff,%ecx
  404733:	09 d1                	or     %edx,%ecx
  404735:	83 f9 00             	cmp    $0x0,%ecx
  404738:	75 2b                	jne    404765 <__libm_atan2_ex+0x425>
  40473a:	66 0f 73 d0 3f       	psrlq  $0x3f,%xmm0
  40473f:	66 0f 73 f0 3f       	psllq  $0x3f,%xmm0
  404744:	3d f0 7f 00 00       	cmp    $0x7ff0,%eax
  404749:	73 23                	jae    40476e <__libm_atan2_ex+0x42e>
  40474b:	66 0f 28 2d 8d dc 00 	movapd 0xdc8d(%rip),%xmm5        # 4123e0 <pi2_table>
  404752:	00 
  404753:	66 0f 70 e5 ee       	pshufd $0xee,%xmm5,%xmm4
  404758:	f2 0f 58 ec          	addsd  %xmm4,%xmm5
  40475c:	66 0f 56 c5          	orpd   %xmm5,%xmm0
  404760:	e9 4d 01 00 00       	jmpq   4048b2 <__libm_atan2_ex+0x572>
  404765:	f2 0f 58 c0          	addsd  %xmm0,%xmm0
  404769:	e9 44 01 00 00       	jmpq   4048b2 <__libm_atan2_ex+0x572>
  40476e:	66 0f 7e c8          	movd   %xmm1,%eax
  404772:	f3 0f 7e d1          	movq   %xmm1,%xmm2
  404776:	66 0f 73 d2 20       	psrlq  $0x20,%xmm2
  40477b:	66 0f 7e d1          	movd   %xmm2,%ecx
  40477f:	ba 00 00 00 80       	mov    $0x80000000,%edx
  404784:	21 ca                	and    %ecx,%edx
  404786:	81 e1 ff ff 0f 00    	and    $0xfffff,%ecx
  40478c:	09 c1                	or     %eax,%ecx
  40478e:	83 f9 00             	cmp    $0x0,%ecx
  404791:	75 1f                	jne    4047b2 <__libm_atan2_ex+0x472>
  404793:	83 fa 00             	cmp    $0x0,%edx
  404796:	75 27                	jne    4047bf <__libm_atan2_ex+0x47f>
  404798:	66 0f 28 2d 70 dc 00 	movapd 0xdc70(%rip),%xmm5        # 412410 <pi4_table>
  40479f:	00 
  4047a0:	66 0f 70 e5 ee       	pshufd $0xee,%xmm5,%xmm4
  4047a5:	f2 0f 58 ec          	addsd  %xmm4,%xmm5
  4047a9:	66 0f 56 c5          	orpd   %xmm5,%xmm0
  4047ad:	e9 00 01 00 00       	jmpq   4048b2 <__libm_atan2_ex+0x572>
  4047b2:	f3 0f 7e c1          	movq   %xmm1,%xmm0
  4047b6:	f2 0f 58 c0          	addsd  %xmm0,%xmm0
  4047ba:	e9 f3 00 00 00       	jmpq   4048b2 <__libm_atan2_ex+0x572>
  4047bf:	66 0f 28 2d 49 dc 00 	movapd 0xdc49(%rip),%xmm5        # 412410 <pi4_table>
  4047c6:	00 
  4047c7:	66 0f 28 35 11 dc 00 	movapd 0xdc11(%rip),%xmm6        # 4123e0 <pi2_table>
  4047ce:	00 
  4047cf:	66 0f 58 ee          	addpd  %xmm6,%xmm5
  4047d3:	66 0f 70 f5 ee       	pshufd $0xee,%xmm5,%xmm6
  4047d8:	66 0f 58 ee          	addpd  %xmm6,%xmm5
  4047dc:	66 0f 56 c5          	orpd   %xmm5,%xmm0
  4047e0:	e9 cd 00 00 00       	jmpq   4048b2 <__libm_atan2_ex+0x572>
  4047e5:	66 0f 7e c8          	movd   %xmm1,%eax
  4047e9:	f3 0f 7e d1          	movq   %xmm1,%xmm2
  4047ed:	66 0f 73 d2 20       	psrlq  $0x20,%xmm2
  4047f2:	66 0f 7e d1          	movd   %xmm2,%ecx
  4047f6:	ba 00 00 00 80       	mov    $0x80000000,%edx
  4047fb:	21 ca                	and    %ecx,%edx
  4047fd:	81 e1 ff ff 0f 00    	and    $0xfffff,%ecx
  404803:	09 c1                	or     %eax,%ecx
  404805:	83 f9 00             	cmp    $0x0,%ecx
  404808:	75 a8                	jne    4047b2 <__libm_atan2_ex+0x472>
  40480a:	66 0f 73 d0 3f       	psrlq  $0x3f,%xmm0
  40480f:	66 0f 73 f0 3f       	psllq  $0x3f,%xmm0
  404814:	83 fa 00             	cmp    $0x0,%edx
  404817:	75 05                	jne    40481e <__libm_atan2_ex+0x4de>
  404819:	e9 94 00 00 00       	jmpq   4048b2 <__libm_atan2_ex+0x572>
  40481e:	66 0f 28 2d aa db 00 	movapd 0xdbaa(%rip),%xmm5        # 4123d0 <pi_table>
  404825:	00 
  404826:	66 0f 70 e5 ee       	pshufd $0xee,%xmm5,%xmm4
  40482b:	f2 0f 58 ec          	addsd  %xmm4,%xmm5
  40482f:	66 0f 56 c5          	orpd   %xmm5,%xmm0
  404833:	eb 7d                	jmp    4048b2 <__libm_atan2_ex+0x572>
  404835:	66 0f c5 d1 03       	pextrw $0x3,%xmm1,%edx
  40483a:	81 e2 00 80 00 00    	and    $0x8000,%edx
  404840:	83 fa 00             	cmp    $0x0,%edx
  404843:	74 1d                	je     404862 <__libm_atan2_ex+0x522>
  404845:	66 0f 28 2d 83 db 00 	movapd 0xdb83(%rip),%xmm5        # 4123d0 <pi_table>
  40484c:	00 
  40484d:	66 0f 70 e5 ee       	pshufd $0xee,%xmm5,%xmm4
  404852:	f2 0f 58 ec          	addsd  %xmm4,%xmm5
  404856:	66 0f 2f c8          	comisd %xmm0,%xmm1
  40485a:	66 0f 56 c5          	orpd   %xmm5,%xmm0
  40485e:	74 2b                	je     40488b <__libm_atan2_ex+0x54b>
  404860:	eb 50                	jmp    4048b2 <__libm_atan2_ex+0x572>
  404862:	66 0f 2f c8          	comisd %xmm0,%xmm1
  404866:	74 23                	je     40488b <__libm_atan2_ex+0x54b>
  404868:	eb 48                	jmp    4048b2 <__libm_atan2_ex+0x572>
  40486a:	66 0f 28 2d 6e db 00 	movapd 0xdb6e(%rip),%xmm5        # 4123e0 <pi2_table>
  404871:	00 
  404872:	66 0f 73 d0 3f       	psrlq  $0x3f,%xmm0
  404877:	66 0f 73 f0 3f       	psllq  $0x3f,%xmm0
  40487c:	66 0f 70 e5 ee       	pshufd $0xee,%xmm5,%xmm4
  404881:	f2 0f 58 ec          	addsd  %xmm4,%xmm5
  404885:	66 0f 56 c5          	orpd   %xmm5,%xmm0
  404889:	eb 27                	jmp    4048b2 <__libm_atan2_ex+0x572>
  40488b:	66 0f d6 44 24 20    	movq   %xmm0,0x20(%rsp)
  404891:	c7 44 24 0c 25 00 00 	movl   $0x25,0xc(%rsp)
  404898:	00 
  404899:	f2 0f 10 4c 24 18    	movsd  0x18(%rsp),%xmm1
  40489f:	f2 0f 10 54 24 10    	movsd  0x10(%rsp),%xmm2
  4048a5:	8b 4c 24 0c          	mov    0xc(%rsp),%ecx
  4048a9:	66 0f 6e d9          	movd   %ecx,%xmm3
  4048ad:	e8 ee ed ff ff       	callq  4036a0 <__libm_error_support_wrapper_x64>
  4048b2:	f2 0f 11 44 24 20    	movsd  %xmm0,0x20(%rsp)
  4048b8:	48 83 c4 28          	add    $0x28,%rsp
  4048bc:	c3                   	retq   
  4048bd:	0f 1f 00             	nopl   (%rax)

00000000004048c0 <__libm_ceil_ex>:
  4048c0:	f3 0f 1e fa          	endbr64 
  4048c4:	66 48 0f 7e c0       	movq   %xmm0,%rax
  4048c9:	48 89 c2             	mov    %rax,%rdx
  4048cc:	48 c1 ea 20          	shr    $0x20,%rdx
  4048d0:	89 d6                	mov    %edx,%esi
  4048d2:	81 e6 ff ff ff 7f    	and    $0x7fffffff,%esi
  4048d8:	8d 8e 00 00 10 c0    	lea    -0x3ff00000(%rsi),%ecx
  4048de:	81 f9 ff ff 3f 03    	cmp    $0x33fffff,%ecx
  4048e4:	77 3c                	ja     404922 <__libm_ceil_ex+0x62>
  4048e6:	c1 ee 14             	shr    $0x14,%esi
  4048e9:	81 f9 ff ff 4f 01    	cmp    $0x14fffff,%ecx
  4048ef:	77 4e                	ja     40493f <__libm_ceil_ex+0x7f>
  4048f1:	b1 13                	mov    $0x13,%cl
  4048f3:	40 28 f1             	sub    %sil,%cl
  4048f6:	be ff ff ff ff       	mov    $0xffffffff,%esi
  4048fb:	d3 e6                	shl    %cl,%esi
  4048fd:	89 f1                	mov    %esi,%ecx
  4048ff:	f7 d1                	not    %ecx
  404901:	21 d1                	and    %edx,%ecx
  404903:	21 f2                	and    %esi,%edx
  404905:	31 ff                	xor    %edi,%edi
  404907:	41 89 c0             	mov    %eax,%r8d
  40490a:	41 09 c8             	or     %ecx,%r8d
  40490d:	0f 44 f7             	cmove  %edi,%esi
  404910:	48 85 c0             	test   %rax,%rax
  404913:	0f 48 f7             	cmovs  %edi,%esi
  404916:	29 f2                	sub    %esi,%edx
  404918:	48 c1 e2 20          	shl    $0x20,%rdx
  40491c:	66 48 0f 6e c2       	movq   %rdx,%xmm0
  404921:	c3                   	retq   
  404922:	81 fe ff ff ef 3f    	cmp    $0x3fefffff,%esi
  404928:	77 14                	ja     40493e <__libm_ceil_ex+0x7e>
  40492a:	09 c6                	or     %eax,%esi
  40492c:	74 10                	je     40493e <__libm_ceil_ex+0x7e>
  40492e:	48 c1 e8 3f          	shr    $0x3f,%rax
  404932:	48 8d 0d e7 da 00 00 	lea    0xdae7(%rip),%rcx        # 412420 <_pone_nzero>
  404939:	f3 0f 7e 04 c1       	movq   (%rcx,%rax,8),%xmm0
  40493e:	c3                   	retq   
  40493f:	b1 33                	mov    $0x33,%cl
  404941:	40 28 f1             	sub    %sil,%cl
  404944:	ba ff ff ff ff       	mov    $0xffffffff,%edx
  404949:	d3 e2                	shl    %cl,%edx
  40494b:	89 d1                	mov    %edx,%ecx
  40494d:	f7 d1                	not    %ecx
  40494f:	48 63 f2             	movslq %edx,%rsi
  404952:	21 c2                	and    %eax,%edx
  404954:	48 bf 00 00 00 00 ff 	movabs $0xffffffff00000000,%rdi
  40495b:	ff ff ff 
  40495e:	48 21 c7             	and    %rax,%rdi
  404961:	48 09 d7             	or     %rdx,%rdi
  404964:	31 d2                	xor    %edx,%edx
  404966:	85 c1                	test   %eax,%ecx
  404968:	48 0f 44 f2          	cmove  %rdx,%rsi
  40496c:	48 85 c0             	test   %rax,%rax
  40496f:	48 0f 48 f2          	cmovs  %rdx,%rsi
  404973:	48 29 f7             	sub    %rsi,%rdi
  404976:	66 48 0f 6e c7       	movq   %rdi,%xmm0
  40497b:	c3                   	retq   
  40497c:	0f 1f 40 00          	nopl   0x0(%rax)

0000000000404980 <__libm_ceil_e7>:
  404980:	f3 0f 1e fa          	endbr64 
  404984:	66 0f c5 c0 03       	pextrw $0x3,%xmm0,%eax
  404989:	25 f0 7f 00 00       	and    $0x7ff0,%eax
  40498e:	3d 20 43 00 00       	cmp    $0x4320,%eax
  404993:	77 62                	ja     4049f7 <__libm_ceil_e7+0x77>
  404995:	74 4b                	je     4049e2 <__libm_ceil_e7+0x62>
  404997:	3d f0 3f 00 00       	cmp    $0x3ff0,%eax
  40499c:	7c 26                	jl     4049c4 <__libm_ceil_e7+0x44>
  40499e:	f3 0f 7e 0d 8a da 00 	movq   0xda8a(%rip),%xmm1        # 412430 <SHIFTER>
  4049a5:	00 
  4049a6:	f2 0f 58 c8          	addsd  %xmm0,%xmm1
  4049aa:	f2 0f 5c 0d 7e da 00 	subsd  0xda7e(%rip),%xmm1        # 412430 <SHIFTER>
  4049b1:	00 
  4049b2:	f2 0f c2 c1 06       	cmpnlesd %xmm1,%xmm0
  4049b7:	66 0f db 05 81 da 00 	pand   0xda81(%rip),%xmm0        # 412440 <ONE>
  4049be:	00 
  4049bf:	f2 0f 58 c1          	addsd  %xmm1,%xmm0
  4049c3:	c3                   	retq   
  4049c4:	66 0f ef c9          	pxor   %xmm1,%xmm1
  4049c8:	f2 0f c2 c8 01       	cmpltsd %xmm0,%xmm1
  4049cd:	66 0f db 05 7b da 00 	pand   0xda7b(%rip),%xmm0        # 412450 <SIGNMASK>
  4049d4:	00 
  4049d5:	66 0f db 0d 63 da 00 	pand   0xda63(%rip),%xmm1        # 412440 <ONE>
  4049dc:	00 
  4049dd:	66 0f eb c1          	por    %xmm1,%xmm0
  4049e1:	c3                   	retq   
  4049e2:	4c 8d 15 77 da 00 00 	lea    0xda77(%rip),%r10        # 412460 <ZERO_HALF>
  4049e9:	66 0f 7e c0          	movd   %xmm0,%eax
  4049ed:	83 e0 01             	and    $0x1,%eax
  4049f0:	f2 41 0f 58 04 c2    	addsd  (%r10,%rax,8),%xmm0
  4049f6:	c3                   	retq   
  4049f7:	66 0f ef c9          	pxor   %xmm1,%xmm1
  4049fb:	f2 0f 58 c1          	addsd  %xmm1,%xmm0
  4049ff:	c3                   	retq   

0000000000404a00 <__libm_ceil_y8>:
  404a00:	f3 0f 1e fa          	endbr64 
  404a04:	f3 0f 7e c8          	movq   %xmm0,%xmm1
  404a08:	f2 0f c2 c8 00       	cmpeqsd %xmm0,%xmm1
  404a0d:	66 0f 3a 0b c0 02    	roundsd $0x2,%xmm0,%xmm0
  404a13:	c3                   	retq   
  404a14:	66 2e 0f 1f 84 00 00 	nopw   %cs:0x0(%rax,%rax,1)
  404a1b:	00 00 00 
  404a1e:	66 90                	xchg   %ax,%ax

0000000000404a20 <__libm_ceilf_ex>:
  404a20:	f3 0f 1e fa          	endbr64 
  404a24:	66 0f 7e c0          	movd   %xmm0,%eax
  404a28:	89 c1                	mov    %eax,%ecx
  404a2a:	c1 e9 17             	shr    $0x17,%ecx
  404a2d:	0f b6 c9             	movzbl %cl,%ecx
  404a30:	81 f9 94 00 00 00    	cmp    $0x94,%ecx
  404a36:	77 46                	ja     404a7e <__libm_ceilf_ex+0x5e>
  404a38:	83 f9 7f             	cmp    $0x7f,%ecx
  404a3b:	72 56                	jb     404a93 <__libm_ceilf_ex+0x73>
  404a3d:	f3 0f 10 0d 2f da 00 	movss  0xda2f(%rip),%xmm1        # 412474 <ZERO_HALF+0x14>
  404a44:	00 
  404a45:	f3 0f 58 c8          	addss  %xmm0,%xmm1
  404a49:	f3 0f 11 4c 24 fc    	movss  %xmm1,-0x4(%rsp)
  404a4f:	f3 0f 10 4c 24 fc    	movss  -0x4(%rsp),%xmm1
  404a55:	f3 0f 58 0d 1b da 00 	addss  0xda1b(%rip),%xmm1        # 412478 <ZERO_HALF+0x18>
  404a5c:	00 
  404a5d:	f3 0f 10 15 17 da 00 	movss  0xda17(%rip),%xmm2        # 41247c <ZERO_HALF+0x1c>
  404a64:	00 
  404a65:	f3 0f 58 d1          	addss  %xmm1,%xmm2
  404a69:	0f 28 d9             	movaps %xmm1,%xmm3
  404a6c:	f3 0f c2 d8 01       	cmpltss %xmm0,%xmm3
  404a71:	0f 54 d3             	andps  %xmm3,%xmm2
  404a74:	0f 55 d9             	andnps %xmm1,%xmm3
  404a77:	0f 56 da             	orps   %xmm2,%xmm3
  404a7a:	0f 28 c3             	movaps %xmm3,%xmm0
  404a7d:	c3                   	retq   
  404a7e:	81 f9 95 00 00 00    	cmp    $0x95,%ecx
  404a84:	75 2f                	jne    404ab5 <__libm_ceilf_ex+0x95>
  404a86:	a8 01                	test   $0x1,%al
  404a88:	74 33                	je     404abd <__libm_ceilf_ex+0x9d>
  404a8a:	f3 0f 58 05 de d9 00 	addss  0xd9de(%rip),%xmm0        # 412470 <ZERO_HALF+0x10>
  404a91:	00 
  404a92:	c3                   	retq   
  404a93:	89 c2                	mov    %eax,%edx
  404a95:	81 e2 ff ff 7f 00    	and    $0x7fffff,%edx
  404a9b:	09 d1                	or     %edx,%ecx
  404a9d:	74 1e                	je     404abd <__libm_ceilf_ex+0x9d>
  404a9f:	f3 0f 11 44 24 fc    	movss  %xmm0,-0x4(%rsp)
  404aa5:	c1 e8 1f             	shr    $0x1f,%eax
  404aa8:	48 8d 0d d1 d9 00 00 	lea    0xd9d1(%rip),%rcx        # 412480 <_pone_nzero>
  404aaf:	f3 0f 10 04 81       	movss  (%rcx,%rax,4),%xmm0
  404ab4:	c3                   	retq   
  404ab5:	f3 0f 59 05 cb d9 00 	mulss  0xd9cb(%rip),%xmm0        # 412488 <ones_v>
  404abc:	00 
  404abd:	c3                   	retq   
  404abe:	66 90                	xchg   %ax,%ax

0000000000404ac0 <__libm_ceilf_e7>:
  404ac0:	f3 0f 1e fa          	endbr64 
  404ac4:	66 0f 7e c0          	movd   %xmm0,%eax
  404ac8:	25 00 00 80 7f       	and    $0x7f800000,%eax
  404acd:	3d 00 00 80 4a       	cmp    $0x4a800000,%eax
  404ad2:	77 62                	ja     404b36 <__libm_ceilf_e7+0x76>
  404ad4:	74 4b                	je     404b21 <__libm_ceilf_e7+0x61>
  404ad6:	3d 00 00 80 3f       	cmp    $0x3f800000,%eax
  404adb:	7c 26                	jl     404b03 <__libm_ceilf_e7+0x43>
  404add:	f3 0f 10 0d ab d9 00 	movss  0xd9ab(%rip),%xmm1        # 412490 <SHIFTER>
  404ae4:	00 
  404ae5:	f3 0f 58 c8          	addss  %xmm0,%xmm1
  404ae9:	f3 0f 5c 0d 9f d9 00 	subss  0xd99f(%rip),%xmm1        # 412490 <SHIFTER>
  404af0:	00 
  404af1:	f3 0f c2 c1 06       	cmpnless %xmm1,%xmm0
  404af6:	66 0f db 05 a2 d9 00 	pand   0xd9a2(%rip),%xmm0        # 4124a0 <ONE>
  404afd:	00 
  404afe:	f3 0f 58 c1          	addss  %xmm1,%xmm0
  404b02:	c3                   	retq   
  404b03:	66 0f ef c9          	pxor   %xmm1,%xmm1
  404b07:	f3 0f c2 c8 01       	cmpltss %xmm0,%xmm1
  404b0c:	66 0f db 05 9c d9 00 	pand   0xd99c(%rip),%xmm0        # 4124b0 <SIGNMASK>
  404b13:	00 
  404b14:	66 0f db 0d 84 d9 00 	pand   0xd984(%rip),%xmm1        # 4124a0 <ONE>
  404b1b:	00 
  404b1c:	66 0f eb c1          	por    %xmm1,%xmm0
  404b20:	c3                   	retq   
  404b21:	4c 8d 15 98 d9 00 00 	lea    0xd998(%rip),%r10        # 4124c0 <ZERO_HALF>
  404b28:	66 0f 7e c0          	movd   %xmm0,%eax
  404b2c:	83 e0 01             	and    $0x1,%eax
  404b2f:	f3 41 0f 58 04 82    	addss  (%r10,%rax,4),%xmm0
  404b35:	c3                   	retq   
  404b36:	66 0f ef c9          	pxor   %xmm1,%xmm1
  404b3a:	f3 0f 58 c1          	addss  %xmm1,%xmm0
  404b3e:	c3                   	retq   
  404b3f:	90                   	nop

0000000000404b40 <__libm_ceilf_y8>:
  404b40:	f3 0f 1e fa          	endbr64 
  404b44:	f3 0f 7e c8          	movq   %xmm0,%xmm1
  404b48:	f3 0f c2 c8 00       	cmpeqss %xmm0,%xmm1
  404b4d:	66 0f 3a 0a c0 02    	roundss $0x2,%xmm0,%xmm0
  404b53:	c3                   	retq   
  404b54:	66 2e 0f 1f 84 00 00 	nopw   %cs:0x0(%rax,%rax,1)
  404b5b:	00 00 00 
  404b5e:	66 90                	xchg   %ax,%ax

0000000000404b60 <__libm_cos_ex>:
  404b60:	f3 0f 1e fa          	endbr64 
  404b64:	53                   	push   %rbx
  404b65:	f2 0f 11 44 24 f0    	movsd  %xmm0,-0x10(%rsp)
  404b6b:	66 0f c5 c0 03       	pextrw $0x3,%xmm0,%eax
  404b70:	66 25 ff 7f          	and    $0x7fff,%ax
  404b74:	66 2d 30 30          	sub    $0x3030,%ax
  404b78:	66 3d c5 10          	cmp    $0x10c5,%ax
  404b7c:	0f 87 4a 01 00 00    	ja     404ccc <__libm_cos_ex+0x16c>
  404b82:	f2 0f 10 0d 46 d9 00 	movsd  0xd946(%rip),%xmm1        # 4124d0 <PI32INV>
  404b89:	00 
  404b8a:	f2 0f 59 c8          	mulsd  %xmm0,%xmm1
  404b8e:	66 0f 28 2d 4a d9 00 	movapd 0xd94a(%rip),%xmm5        # 4124e0 <ONEHALF>
  404b95:	00 
  404b96:	f2 0f 10 25 52 d9 00 	movsd  0xd952(%rip),%xmm4        # 4124f0 <SIGN_MASK>
  404b9d:	00 
  404b9e:	66 0f 54 e0          	andpd  %xmm0,%xmm4
  404ba2:	0f 56 ec             	orps   %xmm4,%xmm5
  404ba5:	66 0f 58 cd          	addpd  %xmm5,%xmm1
  404ba9:	f2 0f 2c d1          	cvttsd2si %xmm1,%edx
  404bad:	f2 0f 2a ca          	cvtsi2sd %edx,%xmm1
  404bb1:	66 0f 28 15 47 d9 00 	movapd 0xd947(%rip),%xmm2        # 412500 <P_2>
  404bb8:	00 
  404bb9:	f2 0f 10 1d 4f d9 00 	movsd  0xd94f(%rip),%xmm3        # 412510 <P_1>
  404bc0:	00 
  404bc1:	f2 0f 59 d9          	mulsd  %xmm1,%xmm3
  404bc5:	66 0f 14 c9          	unpcklpd %xmm1,%xmm1
  404bc9:	48 81 c2 10 76 1c 00 	add    $0x1c7610,%rdx
  404bd0:	f2 0f 10 e0          	movsd  %xmm0,%xmm4
  404bd4:	48 83 e2 3f          	and    $0x3f,%rdx
  404bd8:	66 0f 28 2d 40 d9 00 	movapd 0xd940(%rip),%xmm5        # 412520 <SC_4>
  404bdf:	00 
  404be0:	48 8d 05 49 d9 00 00 	lea    0xd949(%rip),%rax        # 412530 <Ctable>
  404be7:	48 c1 e2 05          	shl    $0x5,%rdx
  404beb:	48 01 d0             	add    %rdx,%rax
  404bee:	66 0f 59 d1          	mulpd  %xmm1,%xmm2
  404bf2:	f2 0f 5c c3          	subsd  %xmm3,%xmm0
  404bf6:	f2 0f 59 0d 32 e1 00 	mulsd  0xe132(%rip),%xmm1        # 412d30 <P_3>
  404bfd:	00 
  404bfe:	f2 0f 5c e3          	subsd  %xmm3,%xmm4
  404c02:	f2 0f 10 78 08       	movsd  0x8(%rax),%xmm7
  404c07:	66 0f 14 c0          	unpcklpd %xmm0,%xmm0
  404c0b:	f2 0f 10 dc          	movsd  %xmm4,%xmm3
  404c0f:	f2 0f 5c e2          	subsd  %xmm2,%xmm4
  404c13:	66 0f 59 e8          	mulpd  %xmm0,%xmm5
  404c17:	66 0f 5c c2          	subpd  %xmm2,%xmm0
  404c1b:	66 0f 28 35 1d e1 00 	movapd 0xe11d(%rip),%xmm6        # 412d40 <SC_2>
  404c22:	00 
  404c23:	f2 0f 59 fc          	mulsd  %xmm4,%xmm7
  404c27:	f2 0f 5c dc          	subsd  %xmm4,%xmm3
  404c2b:	66 0f 59 e8          	mulpd  %xmm0,%xmm5
  404c2f:	66 0f 59 c0          	mulpd  %xmm0,%xmm0
  404c33:	f2 0f 5c da          	subsd  %xmm2,%xmm3
  404c37:	66 0f 28 10          	movapd (%rax),%xmm2
  404c3b:	f2 0f 5c cb          	subsd  %xmm3,%xmm1
  404c3f:	f2 0f 10 58 18       	movsd  0x18(%rax),%xmm3
  404c44:	f2 0f 58 d3          	addsd  %xmm3,%xmm2
  404c48:	f2 0f 5c fa          	subsd  %xmm2,%xmm7
  404c4c:	f2 0f 59 d4          	mulsd  %xmm4,%xmm2
  404c50:	66 0f 59 f0          	mulpd  %xmm0,%xmm6
  404c54:	f2 0f 59 dc          	mulsd  %xmm4,%xmm3
  404c58:	66 0f 59 d0          	mulpd  %xmm0,%xmm2
  404c5c:	66 0f 59 c0          	mulpd  %xmm0,%xmm0
  404c60:	66 0f 58 2d e8 e0 00 	addpd  0xe0e8(%rip),%xmm5        # 412d50 <SC_3>
  404c67:	00 
  404c68:	f2 0f 59 20          	mulsd  (%rax),%xmm4
  404c6c:	66 0f 58 35 ec e0 00 	addpd  0xe0ec(%rip),%xmm6        # 412d60 <SC_1>
  404c73:	00 
  404c74:	66 0f 59 e8          	mulpd  %xmm0,%xmm5
  404c78:	f2 0f 10 c3          	movsd  %xmm3,%xmm0
  404c7c:	f2 0f 58 58 08       	addsd  0x8(%rax),%xmm3
  404c81:	66 0f 59 cf          	mulpd  %xmm7,%xmm1
  404c85:	f2 0f 10 fc          	movsd  %xmm4,%xmm7
  404c89:	f2 0f 58 e3          	addsd  %xmm3,%xmm4
  404c8d:	66 0f 58 f5          	addpd  %xmm5,%xmm6
  404c91:	f2 0f 10 68 08       	movsd  0x8(%rax),%xmm5
  404c96:	f2 0f 5c eb          	subsd  %xmm3,%xmm5
  404c9a:	f2 0f 5c dc          	subsd  %xmm4,%xmm3
  404c9e:	f2 0f 58 48 10       	addsd  0x10(%rax),%xmm1
  404ca3:	66 0f 59 f2          	mulpd  %xmm2,%xmm6
  404ca7:	f2 0f 58 c5          	addsd  %xmm5,%xmm0
  404cab:	f2 0f 58 df          	addsd  %xmm7,%xmm3
  404caf:	f2 0f 58 c1          	addsd  %xmm1,%xmm0
  404cb3:	f2 0f 58 c3          	addsd  %xmm3,%xmm0
  404cb7:	f2 0f 58 c6          	addsd  %xmm6,%xmm0
  404cbb:	66 0f 15 f6          	unpckhpd %xmm6,%xmm6
  404cbf:	f2 0f 58 c6          	addsd  %xmm6,%xmm0
  404cc3:	f2 0f 58 c4          	addsd  %xmm4,%xmm0
  404cc7:	e9 e9 04 00 00       	jmpq   4051b5 <__libm_cos_ex+0x655>
  404ccc:	7f 23                	jg     404cf1 <__libm_cos_ex+0x191>
  404cce:	66 0f c5 c0 03       	pextrw $0x3,%xmm0,%eax
  404cd3:	66 25 ff 7f          	and    $0x7fff,%ax
  404cd7:	66 0f c4 c0 03       	pinsrw $0x3,%eax,%xmm0
  404cdc:	f2 0f 10 0d 8c e0 00 	movsd  0xe08c(%rip),%xmm1        # 412d70 <ONE>
  404ce3:	00 
  404ce4:	f2 0f 5c c8          	subsd  %xmm0,%xmm1
  404ce8:	f2 0f 10 c1          	movsd  %xmm1,%xmm0
  404cec:	e9 c4 04 00 00       	jmpq   4051b5 <__libm_cos_ex+0x655>
  404cf1:	66 0f c5 c0 03       	pextrw $0x3,%xmm0,%eax
  404cf6:	25 f0 7f 00 00       	and    $0x7ff0,%eax
  404cfb:	3d f0 7f 00 00       	cmp    $0x7ff0,%eax
  404d00:	0f 84 9b 04 00 00    	je     4051a1 <__libm_cos_ex+0x641>
  404d06:	66 0f c5 c8 03       	pextrw $0x3,%xmm0,%ecx
  404d0b:	81 e1 f0 7f 00 00    	and    $0x7ff0,%ecx
  404d11:	81 e9 60 3f 00 00    	sub    $0x3f60,%ecx
  404d17:	c1 e9 07             	shr    $0x7,%ecx
  404d1a:	81 e1 fc ff 00 00    	and    $0xfffc,%ecx
  404d20:	4c 8d 1d 59 e0 00 00 	lea    0xe059(%rip),%r11        # 412d80 <PI_INV_TABLE>
  404d27:	4c 01 d9             	add    %r11,%rcx
  404d2a:	66 48 0f 7e c0       	movq   %xmm0,%rax
  404d2f:	44 8b 51 14          	mov    0x14(%rcx),%r10d
  404d33:	44 8b 41 18          	mov    0x18(%rcx),%r8d
  404d37:	89 c2                	mov    %eax,%edx
  404d39:	48 c1 e8 15          	shr    $0x15,%rax
  404d3d:	0d 00 00 00 80       	or     $0x80000000,%eax
  404d42:	c1 e8 0b             	shr    $0xb,%eax
  404d45:	45 89 d1             	mov    %r10d,%r9d
  404d48:	4c 0f af d2          	imul   %rdx,%r10
  404d4c:	4c 0f af c8          	imul   %rax,%r9
  404d50:	4c 0f af c0          	imul   %rax,%r8
  404d54:	8b 71 10             	mov    0x10(%rcx),%esi
  404d57:	8b 79 0c             	mov    0xc(%rcx),%edi
  404d5a:	45 89 d3             	mov    %r10d,%r11d
  404d5d:	49 c1 ea 20          	shr    $0x20,%r10
  404d61:	4d 01 d1             	add    %r10,%r9
  404d64:	4d 01 c3             	add    %r8,%r11
  404d67:	45 89 d8             	mov    %r11d,%r8d
  404d6a:	49 c1 eb 20          	shr    $0x20,%r11
  404d6e:	4d 01 d9             	add    %r11,%r9
  404d71:	41 89 f2             	mov    %esi,%r10d
  404d74:	48 0f af f2          	imul   %rdx,%rsi
  404d78:	4c 0f af d0          	imul   %rax,%r10
  404d7c:	41 89 fb             	mov    %edi,%r11d
  404d7f:	48 0f af fa          	imul   %rdx,%rdi
  404d83:	89 f3                	mov    %esi,%ebx
  404d85:	48 c1 ee 20          	shr    $0x20,%rsi
  404d89:	49 01 d9             	add    %rbx,%r9
  404d8c:	44 89 cb             	mov    %r9d,%ebx
  404d8f:	49 c1 e9 20          	shr    $0x20,%r9
  404d93:	49 01 f2             	add    %rsi,%r10
  404d96:	4d 01 ca             	add    %r9,%r10
  404d99:	48 c1 e3 20          	shl    $0x20,%rbx
  404d9d:	49 09 d8             	or     %rbx,%r8
  404da0:	4c 0f af d8          	imul   %rax,%r11
  404da4:	44 8b 49 08          	mov    0x8(%rcx),%r9d
  404da8:	8b 71 04             	mov    0x4(%rcx),%esi
  404dab:	89 fb                	mov    %edi,%ebx
  404dad:	48 c1 ef 20          	shr    $0x20,%rdi
  404db1:	49 01 da             	add    %rbx,%r10
  404db4:	44 89 d3             	mov    %r10d,%ebx
  404db7:	49 c1 ea 20          	shr    $0x20,%r10
  404dbb:	49 01 fb             	add    %rdi,%r11
  404dbe:	4d 01 d3             	add    %r10,%r11
  404dc1:	4c 89 cf             	mov    %r9,%rdi
  404dc4:	4c 0f af ca          	imul   %rdx,%r9
  404dc8:	48 0f af f8          	imul   %rax,%rdi
  404dcc:	45 89 ca             	mov    %r9d,%r10d
  404dcf:	49 c1 e9 20          	shr    $0x20,%r9
  404dd3:	4d 01 d3             	add    %r10,%r11
  404dd6:	45 89 da             	mov    %r11d,%r10d
  404dd9:	49 c1 eb 20          	shr    $0x20,%r11
  404ddd:	4c 01 cf             	add    %r9,%rdi
  404de0:	4c 01 df             	add    %r11,%rdi
  404de3:	49 89 f1             	mov    %rsi,%r9
  404de6:	48 0f af f2          	imul   %rdx,%rsi
  404dea:	4c 0f af c8          	imul   %rax,%r9
  404dee:	49 c1 e2 20          	shl    $0x20,%r10
  404df2:	49 09 da             	or     %rbx,%r10
  404df5:	8b 01                	mov    (%rcx),%eax
  404df7:	41 89 f3             	mov    %esi,%r11d
  404dfa:	48 c1 ee 20          	shr    $0x20,%rsi
  404dfe:	4c 01 df             	add    %r11,%rdi
  404e01:	41 89 fb             	mov    %edi,%r11d
  404e04:	48 c1 ef 20          	shr    $0x20,%rdi
  404e08:	49 01 f1             	add    %rsi,%r9
  404e0b:	49 01 f9             	add    %rdi,%r9
  404e0e:	48 0f af d0          	imul   %rax,%rdx
  404e12:	66 0f c5 d8 03       	pextrw $0x3,%xmm0,%ebx
  404e17:	48 8d 3d 62 df 00 00 	lea    0xdf62(%rip),%rdi        # 412d80 <PI_INV_TABLE>
  404e1e:	48 29 f9             	sub    %rdi,%rcx
  404e21:	01 c9                	add    %ecx,%ecx
  404e23:	01 c9                	add    %ecx,%ecx
  404e25:	01 c9                	add    %ecx,%ecx
  404e27:	83 c1 13             	add    $0x13,%ecx
  404e2a:	be 00 80 00 00       	mov    $0x8000,%esi
  404e2f:	21 de                	and    %ebx,%esi
  404e31:	c1 eb 04             	shr    $0x4,%ebx
  404e34:	81 e3 ff 07 00 00    	and    $0x7ff,%ebx
  404e3a:	81 eb ff 03 00 00    	sub    $0x3ff,%ebx
  404e40:	29 d9                	sub    %ebx,%ecx
  404e42:	49 01 d1             	add    %rdx,%r9
  404e45:	89 ca                	mov    %ecx,%edx
  404e47:	83 c2 20             	add    $0x20,%edx
  404e4a:	83 f9 01             	cmp    $0x1,%ecx
  404e4d:	0f 8c 9c 02 00 00    	jl     4050ef <__libm_cos_ex+0x58f>
  404e53:	f7 d9                	neg    %ecx
  404e55:	83 c1 1d             	add    $0x1d,%ecx
  404e58:	41 d3 e1             	shl    %cl,%r9d
  404e5b:	44 89 cf             	mov    %r9d,%edi
  404e5e:	41 81 e1 ff ff ff 1f 	and    $0x1fffffff,%r9d
  404e65:	41 f7 c1 00 00 00 10 	test   $0x10000000,%r9d
  404e6c:	0f 85 a6 02 00 00    	jne    405118 <__libm_cos_ex+0x5b8>
  404e72:	41 d3 e9             	shr    %cl,%r9d
  404e75:	bb 00 00 00 00       	mov    $0x0,%ebx
  404e7a:	49 c1 e1 20          	shl    $0x20,%r9
  404e7e:	4d 09 d9             	or     %r11,%r9
  404e81:	49 83 f9 00          	cmp    $0x0,%r9
  404e85:	0f 84 07 02 00 00    	je     405092 <__libm_cos_ex+0x532>
  404e8b:	4d 0f bd d9          	bsr    %r9,%r11
  404e8f:	b9 1d 00 00 00       	mov    $0x1d,%ecx
  404e94:	44 29 d9             	sub    %r11d,%ecx
  404e97:	0f 8e 2f 02 00 00    	jle    4050cc <__libm_cos_ex+0x56c>
  404e9d:	49 d3 e1             	shl    %cl,%r9
  404ea0:	4c 89 d0             	mov    %r10,%rax
  404ea3:	49 d3 e2             	shl    %cl,%r10
  404ea6:	01 ca                	add    %ecx,%edx
  404ea8:	f7 d9                	neg    %ecx
  404eaa:	83 c1 40             	add    $0x40,%ecx
  404ead:	48 d3 e8             	shr    %cl,%rax
  404eb0:	49 d3 e8             	shr    %cl,%r8
  404eb3:	49 09 c1             	or     %rax,%r9
  404eb6:	4d 09 c2             	or     %r8,%r10
  404eb9:	f2 49 0f 2a c1       	cvtsi2sd %r9,%xmm0
  404ebe:	49 d1 ea             	shr    %r10
  404ec1:	f2 49 0f 2a da       	cvtsi2sd %r10,%xmm3
  404ec6:	66 0f 57 e4          	xorpd  %xmm4,%xmm4
  404eca:	c1 e2 04             	shl    $0x4,%edx
  404ecd:	f7 da                	neg    %edx
  404ecf:	81 c2 f0 3f 00 00    	add    $0x3ff0,%edx
  404ed5:	09 f2                	or     %esi,%edx
  404ed7:	31 da                	xor    %ebx,%edx
  404ed9:	66 0f c4 e2 03       	pinsrw $0x3,%edx,%xmm4
  404ede:	f2 0f 10 15 4a df 00 	movsd  0xdf4a(%rip),%xmm2        # 412e30 <PI_4>
  404ee5:	00 
  404ee6:	f2 0f 10 35 4a df 00 	movsd  0xdf4a(%rip),%xmm6        # 412e38 <PI_4+0x8>
  404eed:	00 
  404eee:	66 0f 57 ed          	xorpd  %xmm5,%xmm5
  404ef2:	81 ea f0 03 00 00    	sub    $0x3f0,%edx
  404ef8:	66 0f c4 ea 03       	pinsrw $0x3,%edx,%xmm5
  404efd:	f2 0f 59 c4          	mulsd  %xmm4,%xmm0
  404f01:	c1 e6 10             	shl    $0x10,%esi
  404f04:	c1 fe 1f             	sar    $0x1f,%esi
  404f07:	f2 0f 59 dd          	mulsd  %xmm5,%xmm3
  404f0b:	f2 0f 10 c8          	movsd  %xmm0,%xmm1
  404f0f:	f2 0f 59 c2          	mulsd  %xmm2,%xmm0
  404f13:	c1 ef 1d             	shr    $0x1d,%edi
  404f16:	f2 0f 58 cb          	addsd  %xmm3,%xmm1
  404f1a:	f2 0f 59 da          	mulsd  %xmm2,%xmm3
  404f1e:	01 f7                	add    %esi,%edi
  404f20:	31 f7                	xor    %esi,%edi
  404f22:	f2 0f 59 f1          	mulsd  %xmm1,%xmm6
  404f26:	89 f8                	mov    %edi,%eax
  404f28:	f2 0f 58 f3          	addsd  %xmm3,%xmm6
  404f2c:	f2 0f 10 d0          	movsd  %xmm0,%xmm2
  404f30:	f2 0f 58 c6          	addsd  %xmm6,%xmm0
  404f34:	f2 0f 5c d0          	subsd  %xmm0,%xmm2
  404f38:	f2 0f 58 f2          	addsd  %xmm2,%xmm6
  404f3c:	f2 0f 10 0d 8c d5 00 	movsd  0xd58c(%rip),%xmm1        # 4124d0 <PI32INV>
  404f43:	00 
  404f44:	f2 0f 59 c8          	mulsd  %xmm0,%xmm1
  404f48:	f3 0f 7e 2d 90 d5 00 	movq   0xd590(%rip),%xmm5        # 4124e0 <ONEHALF>
  404f4f:	00 
  404f50:	f3 0f 7e 25 98 d5 00 	movq   0xd598(%rip),%xmm4        # 4124f0 <SIGN_MASK>
  404f57:	00 
  404f58:	66 0f 54 e0          	andpd  %xmm0,%xmm4
  404f5c:	0f 56 ec             	orps   %xmm4,%xmm5
  404f5f:	66 0f 58 cd          	addpd  %xmm5,%xmm1
  404f63:	f2 48 0f 2c d1       	cvttsd2si %xmm1,%rdx
  404f68:	f2 48 0f 2a ca       	cvtsi2sd %rdx,%xmm1
  404f6d:	f2 0f 10 1d 9b d5 00 	movsd  0xd59b(%rip),%xmm3        # 412510 <P_1>
  404f74:	00 
  404f75:	66 0f 28 15 83 d5 00 	movapd 0xd583(%rip),%xmm2        # 412500 <P_2>
  404f7c:	00 
  404f7d:	f2 0f 59 d9          	mulsd  %xmm1,%xmm3
  404f81:	66 0f 14 c9          	unpcklpd %xmm1,%xmm1
  404f85:	c1 e0 03             	shl    $0x3,%eax
  404f88:	81 c2 10 76 1c 00    	add    $0x1c7610,%edx
  404f8e:	f2 0f 10 e0          	movsd  %xmm0,%xmm4
  404f92:	01 c2                	add    %eax,%edx
  404f94:	83 e2 3f             	and    $0x3f,%edx
  404f97:	66 0f 28 2d 81 d5 00 	movapd 0xd581(%rip),%xmm5        # 412520 <SC_4>
  404f9e:	00 
  404f9f:	48 8d 05 8a d5 00 00 	lea    0xd58a(%rip),%rax        # 412530 <Ctable>
  404fa6:	c1 e2 05             	shl    $0x5,%edx
  404fa9:	48 01 d0             	add    %rdx,%rax
  404fac:	66 0f 59 d1          	mulpd  %xmm1,%xmm2
  404fb0:	f2 0f 5c c3          	subsd  %xmm3,%xmm0
  404fb4:	f2 0f 59 0d 74 dd 00 	mulsd  0xdd74(%rip),%xmm1        # 412d30 <P_3>
  404fbb:	00 
  404fbc:	f2 0f 5c e3          	subsd  %xmm3,%xmm4
  404fc0:	f2 0f 10 78 08       	movsd  0x8(%rax),%xmm7
  404fc5:	66 0f 14 c0          	unpcklpd %xmm0,%xmm0
  404fc9:	f2 0f 10 dc          	movsd  %xmm4,%xmm3
  404fcd:	f2 0f 5c e2          	subsd  %xmm2,%xmm4
  404fd1:	66 0f 59 e8          	mulpd  %xmm0,%xmm5
  404fd5:	66 0f 5c c2          	subpd  %xmm2,%xmm0
  404fd9:	f2 0f 59 fc          	mulsd  %xmm4,%xmm7
  404fdd:	f2 0f 5c dc          	subsd  %xmm4,%xmm3
  404fe1:	66 0f 59 e8          	mulpd  %xmm0,%xmm5
  404fe5:	66 0f 59 c0          	mulpd  %xmm0,%xmm0
  404fe9:	f2 0f 5c da          	subsd  %xmm2,%xmm3
  404fed:	66 0f 28 10          	movapd (%rax),%xmm2
  404ff1:	f2 0f 5c cb          	subsd  %xmm3,%xmm1
  404ff5:	f2 0f 10 58 18       	movsd  0x18(%rax),%xmm3
  404ffa:	f2 0f 58 d3          	addsd  %xmm3,%xmm2
  404ffe:	f2 0f 5c fa          	subsd  %xmm2,%xmm7
  405002:	f2 0f 5c ce          	subsd  %xmm6,%xmm1
  405006:	66 0f 28 35 32 dd 00 	movapd 0xdd32(%rip),%xmm6        # 412d40 <SC_2>
  40500d:	00 
  40500e:	f2 0f 59 d4          	mulsd  %xmm4,%xmm2
  405012:	66 0f 59 f0          	mulpd  %xmm0,%xmm6
  405016:	f2 0f 59 dc          	mulsd  %xmm4,%xmm3
  40501a:	66 0f 59 d0          	mulpd  %xmm0,%xmm2
  40501e:	66 0f 59 c0          	mulpd  %xmm0,%xmm0
  405022:	66 0f 58 2d 26 dd 00 	addpd  0xdd26(%rip),%xmm5        # 412d50 <SC_3>
  405029:	00 
  40502a:	f2 0f 59 20          	mulsd  (%rax),%xmm4
  40502e:	66 0f 58 35 2a dd 00 	addpd  0xdd2a(%rip),%xmm6        # 412d60 <SC_1>
  405035:	00 
  405036:	66 0f 59 e8          	mulpd  %xmm0,%xmm5
  40503a:	f2 0f 10 c3          	movsd  %xmm3,%xmm0
  40503e:	f2 0f 58 58 08       	addsd  0x8(%rax),%xmm3
  405043:	66 0f 59 cf          	mulpd  %xmm7,%xmm1
  405047:	f2 0f 10 fc          	movsd  %xmm4,%xmm7
  40504b:	f2 0f 58 e3          	addsd  %xmm3,%xmm4
  40504f:	66 0f 58 f5          	addpd  %xmm5,%xmm6
  405053:	f2 0f 10 68 08       	movsd  0x8(%rax),%xmm5
  405058:	f2 0f 5c eb          	subsd  %xmm3,%xmm5
  40505c:	f2 0f 5c dc          	subsd  %xmm4,%xmm3
  405060:	f2 0f 58 48 10       	addsd  0x10(%rax),%xmm1
  405065:	66 0f 59 f2          	mulpd  %xmm2,%xmm6
  405069:	f2 0f 58 e8          	addsd  %xmm0,%xmm5
  40506d:	f2 0f 58 df          	addsd  %xmm7,%xmm3
  405071:	f2 0f 58 cd          	addsd  %xmm5,%xmm1
  405075:	f2 0f 58 cb          	addsd  %xmm3,%xmm1
  405079:	f2 0f 58 ce          	addsd  %xmm6,%xmm1
  40507d:	66 0f 15 f6          	unpckhpd %xmm6,%xmm6
  405081:	f2 0f 10 c4          	movsd  %xmm4,%xmm0
  405085:	f2 0f 58 ce          	addsd  %xmm6,%xmm1
  405089:	f2 0f 58 c1          	addsd  %xmm1,%xmm0
  40508d:	e9 23 01 00 00       	jmpq   4051b5 <__libm_cos_ex+0x655>
  405092:	83 c2 40             	add    $0x40,%edx
  405095:	4d 89 d1             	mov    %r10,%r9
  405098:	4d 89 c2             	mov    %r8,%r10
  40509b:	49 c7 c0 00 00 00 00 	mov    $0x0,%r8
  4050a2:	49 83 f9 00          	cmp    $0x0,%r9
  4050a6:	0f 85 df fd ff ff    	jne    404e8b <__libm_cos_ex+0x32b>
  4050ac:	83 c2 40             	add    $0x40,%edx
  4050af:	4d 89 d1             	mov    %r10,%r9
  4050b2:	4d 89 c2             	mov    %r8,%r10
  4050b5:	49 83 f9 00          	cmp    $0x0,%r9
  4050b9:	0f 85 cc fd ff ff    	jne    404e8b <__libm_cos_ex+0x32b>
  4050bf:	66 0f 57 c0          	xorpd  %xmm0,%xmm0
  4050c3:	66 0f 57 f6          	xorpd  %xmm6,%xmm6
  4050c7:	e9 70 fe ff ff       	jmpq   404f3c <__libm_cos_ex+0x3dc>
  4050cc:	0f 84 e7 fd ff ff    	je     404eb9 <__libm_cos_ex+0x359>
  4050d2:	f7 d9                	neg    %ecx
  4050d4:	49 d3 ea             	shr    %cl,%r10
  4050d7:	4c 89 c8             	mov    %r9,%rax
  4050da:	49 d3 e9             	shr    %cl,%r9
  4050dd:	29 ca                	sub    %ecx,%edx
  4050df:	f7 d9                	neg    %ecx
  4050e1:	83 c1 40             	add    $0x40,%ecx
  4050e4:	48 d3 e0             	shl    %cl,%rax
  4050e7:	49 09 c2             	or     %rax,%r10
  4050ea:	e9 ca fd ff ff       	jmpq   404eb9 <__libm_cos_ex+0x359>
  4050ef:	f7 d9                	neg    %ecx
  4050f1:	49 c1 e1 20          	shl    $0x20,%r9
  4050f5:	4d 09 d9             	or     %r11,%r9
  4050f8:	49 d3 e1             	shl    %cl,%r9
  4050fb:	4c 89 cf             	mov    %r9,%rdi
  4050fe:	41 f7 c1 00 00 00 80 	test   $0x80000000,%r9d
  405105:	75 56                	jne    40515d <__libm_cos_ex+0x5fd>
  405107:	41 d3 e9             	shr    %cl,%r9d
  40510a:	bb 00 00 00 00       	mov    $0x0,%ebx
  40510f:	48 c1 ef 03          	shr    $0x3,%rdi
  405113:	e9 69 fd ff ff       	jmpq   404e81 <__libm_cos_ex+0x321>
  405118:	41 d3 e9             	shr    %cl,%r9d
  40511b:	bb 00 00 00 20       	mov    $0x20000000,%ebx
  405120:	d3 eb                	shr    %cl,%ebx
  405122:	49 c1 e1 20          	shl    $0x20,%r9
  405126:	4d 09 d9             	or     %r11,%r9
  405129:	48 c1 e3 20          	shl    $0x20,%rbx
  40512d:	81 c7 00 00 00 20    	add    $0x20000000,%edi
  405133:	48 c7 c1 00 00 00 00 	mov    $0x0,%rcx
  40513a:	49 c7 c3 00 00 00 00 	mov    $0x0,%r11
  405141:	4c 29 c1             	sub    %r8,%rcx
  405144:	4d 19 d3             	sbb    %r10,%r11
  405147:	4c 19 cb             	sbb    %r9,%rbx
  40514a:	49 89 c8             	mov    %rcx,%r8
  40514d:	4d 89 da             	mov    %r11,%r10
  405150:	49 89 d9             	mov    %rbx,%r9
  405153:	bb 00 80 00 00       	mov    $0x8000,%ebx
  405158:	e9 24 fd ff ff       	jmpq   404e81 <__libm_cos_ex+0x321>
  40515d:	41 d3 e9             	shr    %cl,%r9d
  405160:	48 bb 00 00 00 00 01 	movabs $0x100000000,%rbx
  405167:	00 00 00 
  40516a:	48 d3 eb             	shr    %cl,%rbx
  40516d:	48 c7 c1 00 00 00 00 	mov    $0x0,%rcx
  405174:	49 c7 c3 00 00 00 00 	mov    $0x0,%r11
  40517b:	4c 29 c1             	sub    %r8,%rcx
  40517e:	4d 19 d3             	sbb    %r10,%r11
  405181:	4c 19 cb             	sbb    %r9,%rbx
  405184:	49 89 c8             	mov    %rcx,%r8
  405187:	4d 89 da             	mov    %r11,%r10
  40518a:	49 89 d9             	mov    %rbx,%r9
  40518d:	bb 00 80 00 00       	mov    $0x8000,%ebx
  405192:	48 c1 ef 03          	shr    $0x3,%rdi
  405196:	81 c7 00 00 00 20    	add    $0x20000000,%edi
  40519c:	e9 e0 fc ff ff       	jmpq   404e81 <__libm_cos_ex+0x321>
  4051a1:	f2 0f 10 44 24 f0    	movsd  -0x10(%rsp),%xmm0
  4051a7:	f2 0f 59 05 91 dc 00 	mulsd  0xdc91(%rip),%xmm0        # 412e40 <NEG_ZERO>
  4051ae:	00 
  4051af:	f2 0f 11 44 24 f8    	movsd  %xmm0,-0x8(%rsp)
  4051b5:	5b                   	pop    %rbx
  4051b6:	c3                   	retq   
  4051b7:	66 0f 1f 84 00 00 00 	nopw   0x0(%rax,%rax,1)
  4051be:	00 00 

00000000004051c0 <__libm_cos_e7>:
  4051c0:	f3 0f 1e fa          	endbr64 
  4051c4:	53                   	push   %rbx
  4051c5:	f2 0f 11 44 24 f0    	movsd  %xmm0,-0x10(%rsp)
  4051cb:	8b 44 24 f4          	mov    -0xc(%rsp),%eax
  4051cf:	f3 0f 7e 0d 79 dc 00 	movq   0xdc79(%rip),%xmm1        # 412e50 <PI32INV>
  4051d6:	00 
  4051d7:	25 00 00 ff 7f       	and    $0x7fff0000,%eax
  4051dc:	2d 00 00 30 30       	sub    $0x30300000,%eax
  4051e1:	3d 00 00 c5 10       	cmp    $0x10c50000,%eax
  4051e6:	0f 87 42 01 00 00    	ja     40532e <__libm_cos_e7+0x16e>
  4051ec:	f2 0f 59 c8          	mulsd  %xmm0,%xmm1
  4051f0:	66 0f 28 2d 68 dc 00 	movapd 0xdc68(%rip),%xmm5        # 412e60 <ONEHALF>
  4051f7:	00 
  4051f8:	f3 0f 7e 25 70 dc 00 	movq   0xdc70(%rip),%xmm4        # 412e70 <SIGN_MASK>
  4051ff:	00 
  405200:	66 0f 54 e0          	andpd  %xmm0,%xmm4
  405204:	0f 56 ec             	orps   %xmm4,%xmm5
  405207:	66 0f 58 cd          	addpd  %xmm5,%xmm1
  40520b:	f2 0f 2c d1          	cvttsd2si %xmm1,%edx
  40520f:	f2 0f 2a ca          	cvtsi2sd %edx,%xmm1
  405213:	66 0f 28 15 65 dc 00 	movapd 0xdc65(%rip),%xmm2        # 412e80 <P_2>
  40521a:	00 
  40521b:	f3 0f 7e 1d 6d dc 00 	movq   0xdc6d(%rip),%xmm3        # 412e90 <P_1>
  405222:	00 
  405223:	f2 0f 59 d9          	mulsd  %xmm1,%xmm3
  405227:	66 0f 14 c9          	unpcklpd %xmm1,%xmm1
  40522b:	48 81 c2 10 76 1c 00 	add    $0x1c7610,%rdx
  405232:	f3 0f 7e e0          	movq   %xmm0,%xmm4
  405236:	48 83 e2 3f          	and    $0x3f,%rdx
  40523a:	66 0f 28 2d 5e dc 00 	movapd 0xdc5e(%rip),%xmm5        # 412ea0 <SC_4>
  405241:	00 
  405242:	48 8d 05 67 dc 00 00 	lea    0xdc67(%rip),%rax        # 412eb0 <Ctable>
  405249:	48 c1 e2 05          	shl    $0x5,%rdx
  40524d:	48 01 d0             	add    %rdx,%rax
  405250:	66 0f 59 d1          	mulpd  %xmm1,%xmm2
  405254:	f2 0f 5c c3          	subsd  %xmm3,%xmm0
  405258:	f2 0f 59 0d 50 e4 00 	mulsd  0xe450(%rip),%xmm1        # 4136b0 <P_3>
  40525f:	00 
  405260:	f2 0f 5c e3          	subsd  %xmm3,%xmm4
  405264:	f3 0f 7e 78 08       	movq   0x8(%rax),%xmm7
  405269:	66 0f 14 c0          	unpcklpd %xmm0,%xmm0
  40526d:	f3 0f 7e dc          	movq   %xmm4,%xmm3
  405271:	f2 0f 5c e2          	subsd  %xmm2,%xmm4
  405275:	66 0f 59 e8          	mulpd  %xmm0,%xmm5
  405279:	66 0f 5c c2          	subpd  %xmm2,%xmm0
  40527d:	66 0f 28 35 3b e4 00 	movapd 0xe43b(%rip),%xmm6        # 4136c0 <SC_2>
  405284:	00 
  405285:	f2 0f 59 fc          	mulsd  %xmm4,%xmm7
  405289:	f2 0f 5c dc          	subsd  %xmm4,%xmm3
  40528d:	66 0f 59 e8          	mulpd  %xmm0,%xmm5
  405291:	66 0f 59 c0          	mulpd  %xmm0,%xmm0
  405295:	f2 0f 5c da          	subsd  %xmm2,%xmm3
  405299:	66 0f 28 10          	movapd (%rax),%xmm2
  40529d:	f2 0f 5c cb          	subsd  %xmm3,%xmm1
  4052a1:	f3 0f 7e 58 18       	movq   0x18(%rax),%xmm3
  4052a6:	f2 0f 58 d3          	addsd  %xmm3,%xmm2
  4052aa:	f2 0f 5c fa          	subsd  %xmm2,%xmm7
  4052ae:	f2 0f 59 d4          	mulsd  %xmm4,%xmm2
  4052b2:	66 0f 59 f0          	mulpd  %xmm0,%xmm6
  4052b6:	f2 0f 59 dc          	mulsd  %xmm4,%xmm3
  4052ba:	66 0f 59 d0          	mulpd  %xmm0,%xmm2
  4052be:	66 0f 59 c0          	mulpd  %xmm0,%xmm0
  4052c2:	66 0f 58 2d 06 e4 00 	addpd  0xe406(%rip),%xmm5        # 4136d0 <SC_3>
  4052c9:	00 
  4052ca:	f2 0f 59 20          	mulsd  (%rax),%xmm4
  4052ce:	66 0f 58 35 0a e4 00 	addpd  0xe40a(%rip),%xmm6        # 4136e0 <SC_1>
  4052d5:	00 
  4052d6:	66 0f 59 e8          	mulpd  %xmm0,%xmm5
  4052da:	f3 0f 7e c3          	movq   %xmm3,%xmm0
  4052de:	f2 0f 58 58 08       	addsd  0x8(%rax),%xmm3
  4052e3:	66 0f 59 cf          	mulpd  %xmm7,%xmm1
  4052e7:	f3 0f 7e fc          	movq   %xmm4,%xmm7
  4052eb:	f2 0f 58 e3          	addsd  %xmm3,%xmm4
  4052ef:	66 0f 58 f5          	addpd  %xmm5,%xmm6
  4052f3:	f3 0f 7e 68 08       	movq   0x8(%rax),%xmm5
  4052f8:	f2 0f 5c eb          	subsd  %xmm3,%xmm5
  4052fc:	f2 0f 5c dc          	subsd  %xmm4,%xmm3
  405300:	f2 0f 58 48 10       	addsd  0x10(%rax),%xmm1
  405305:	66 0f 59 f2          	mulpd  %xmm2,%xmm6
  405309:	f2 0f 58 c5          	addsd  %xmm5,%xmm0
  40530d:	f2 0f 58 df          	addsd  %xmm7,%xmm3
  405311:	f2 0f 58 c1          	addsd  %xmm1,%xmm0
  405315:	f2 0f 58 c3          	addsd  %xmm3,%xmm0
  405319:	f2 0f 58 c6          	addsd  %xmm6,%xmm0
  40531d:	66 0f 15 f6          	unpckhpd %xmm6,%xmm6
  405321:	f2 0f 58 c6          	addsd  %xmm6,%xmm0
  405325:	f2 0f 58 c4          	addsd  %xmm4,%xmm0
  405329:	e9 e9 04 00 00       	jmpq   405817 <__libm_cos_e7+0x657>
  40532e:	7f 23                	jg     405353 <__libm_cos_e7+0x193>
  405330:	66 0f c5 c0 03       	pextrw $0x3,%xmm0,%eax
  405335:	66 25 ff 7f          	and    $0x7fff,%ax
  405339:	66 0f c4 c0 03       	pinsrw $0x3,%eax,%xmm0
  40533e:	f3 0f 7e 0d aa e3 00 	movq   0xe3aa(%rip),%xmm1        # 4136f0 <ONE>
  405345:	00 
  405346:	f2 0f 5c c8          	subsd  %xmm0,%xmm1
  40534a:	f3 0f 7e c1          	movq   %xmm1,%xmm0
  40534e:	e9 c4 04 00 00       	jmpq   405817 <__libm_cos_e7+0x657>
  405353:	66 0f c5 c0 03       	pextrw $0x3,%xmm0,%eax
  405358:	25 f0 7f 00 00       	and    $0x7ff0,%eax
  40535d:	3d f0 7f 00 00       	cmp    $0x7ff0,%eax
  405362:	0f 84 9b 04 00 00    	je     405803 <__libm_cos_e7+0x643>
  405368:	66 0f c5 c8 03       	pextrw $0x3,%xmm0,%ecx
  40536d:	81 e1 f0 7f 00 00    	and    $0x7ff0,%ecx
  405373:	81 e9 60 3f 00 00    	sub    $0x3f60,%ecx
  405379:	c1 e9 07             	shr    $0x7,%ecx
  40537c:	81 e1 fc ff 00 00    	and    $0xfffc,%ecx
  405382:	4c 8d 1d 77 e3 00 00 	lea    0xe377(%rip),%r11        # 413700 <PI_INV_TABLE>
  405389:	4c 01 d9             	add    %r11,%rcx
  40538c:	66 48 0f 7e c0       	movq   %xmm0,%rax
  405391:	44 8b 51 14          	mov    0x14(%rcx),%r10d
  405395:	44 8b 41 18          	mov    0x18(%rcx),%r8d
  405399:	89 c2                	mov    %eax,%edx
  40539b:	48 c1 e8 15          	shr    $0x15,%rax
  40539f:	0d 00 00 00 80       	or     $0x80000000,%eax
  4053a4:	c1 e8 0b             	shr    $0xb,%eax
  4053a7:	45 89 d1             	mov    %r10d,%r9d
  4053aa:	4c 0f af d2          	imul   %rdx,%r10
  4053ae:	4c 0f af c8          	imul   %rax,%r9
  4053b2:	4c 0f af c0          	imul   %rax,%r8
  4053b6:	8b 71 10             	mov    0x10(%rcx),%esi
  4053b9:	8b 79 0c             	mov    0xc(%rcx),%edi
  4053bc:	45 89 d3             	mov    %r10d,%r11d
  4053bf:	49 c1 ea 20          	shr    $0x20,%r10
  4053c3:	4d 01 d1             	add    %r10,%r9
  4053c6:	4d 01 c3             	add    %r8,%r11
  4053c9:	45 89 d8             	mov    %r11d,%r8d
  4053cc:	49 c1 eb 20          	shr    $0x20,%r11
  4053d0:	4d 01 d9             	add    %r11,%r9
  4053d3:	41 89 f2             	mov    %esi,%r10d
  4053d6:	48 0f af f2          	imul   %rdx,%rsi
  4053da:	4c 0f af d0          	imul   %rax,%r10
  4053de:	41 89 fb             	mov    %edi,%r11d
  4053e1:	48 0f af fa          	imul   %rdx,%rdi
  4053e5:	89 f3                	mov    %esi,%ebx
  4053e7:	48 c1 ee 20          	shr    $0x20,%rsi
  4053eb:	49 01 d9             	add    %rbx,%r9
  4053ee:	44 89 cb             	mov    %r9d,%ebx
  4053f1:	49 c1 e9 20          	shr    $0x20,%r9
  4053f5:	49 01 f2             	add    %rsi,%r10
  4053f8:	4d 01 ca             	add    %r9,%r10
  4053fb:	48 c1 e3 20          	shl    $0x20,%rbx
  4053ff:	49 09 d8             	or     %rbx,%r8
  405402:	4c 0f af d8          	imul   %rax,%r11
  405406:	44 8b 49 08          	mov    0x8(%rcx),%r9d
  40540a:	8b 71 04             	mov    0x4(%rcx),%esi
  40540d:	89 fb                	mov    %edi,%ebx
  40540f:	48 c1 ef 20          	shr    $0x20,%rdi
  405413:	49 01 da             	add    %rbx,%r10
  405416:	44 89 d3             	mov    %r10d,%ebx
  405419:	49 c1 ea 20          	shr    $0x20,%r10
  40541d:	49 01 fb             	add    %rdi,%r11
  405420:	4d 01 d3             	add    %r10,%r11
  405423:	4c 89 cf             	mov    %r9,%rdi
  405426:	4c 0f af ca          	imul   %rdx,%r9
  40542a:	48 0f af f8          	imul   %rax,%rdi
  40542e:	45 89 ca             	mov    %r9d,%r10d
  405431:	49 c1 e9 20          	shr    $0x20,%r9
  405435:	4d 01 d3             	add    %r10,%r11
  405438:	45 89 da             	mov    %r11d,%r10d
  40543b:	49 c1 eb 20          	shr    $0x20,%r11
  40543f:	4c 01 cf             	add    %r9,%rdi
  405442:	4c 01 df             	add    %r11,%rdi
  405445:	49 89 f1             	mov    %rsi,%r9
  405448:	48 0f af f2          	imul   %rdx,%rsi
  40544c:	4c 0f af c8          	imul   %rax,%r9
  405450:	49 c1 e2 20          	shl    $0x20,%r10
  405454:	49 09 da             	or     %rbx,%r10
  405457:	8b 01                	mov    (%rcx),%eax
  405459:	41 89 f3             	mov    %esi,%r11d
  40545c:	48 c1 ee 20          	shr    $0x20,%rsi
  405460:	4c 01 df             	add    %r11,%rdi
  405463:	41 89 fb             	mov    %edi,%r11d
  405466:	48 c1 ef 20          	shr    $0x20,%rdi
  40546a:	49 01 f1             	add    %rsi,%r9
  40546d:	49 01 f9             	add    %rdi,%r9
  405470:	48 0f af d0          	imul   %rax,%rdx
  405474:	66 0f c5 d8 03       	pextrw $0x3,%xmm0,%ebx
  405479:	48 8d 3d 80 e2 00 00 	lea    0xe280(%rip),%rdi        # 413700 <PI_INV_TABLE>
  405480:	48 29 f9             	sub    %rdi,%rcx
  405483:	01 c9                	add    %ecx,%ecx
  405485:	01 c9                	add    %ecx,%ecx
  405487:	01 c9                	add    %ecx,%ecx
  405489:	83 c1 13             	add    $0x13,%ecx
  40548c:	be 00 80 00 00       	mov    $0x8000,%esi
  405491:	21 de                	and    %ebx,%esi
  405493:	c1 eb 04             	shr    $0x4,%ebx
  405496:	81 e3 ff 07 00 00    	and    $0x7ff,%ebx
  40549c:	81 eb ff 03 00 00    	sub    $0x3ff,%ebx
  4054a2:	29 d9                	sub    %ebx,%ecx
  4054a4:	49 01 d1             	add    %rdx,%r9
  4054a7:	89 ca                	mov    %ecx,%edx
  4054a9:	83 c2 20             	add    $0x20,%edx
  4054ac:	83 f9 01             	cmp    $0x1,%ecx
  4054af:	0f 8c 9c 02 00 00    	jl     405751 <__libm_cos_e7+0x591>
  4054b5:	f7 d9                	neg    %ecx
  4054b7:	83 c1 1d             	add    $0x1d,%ecx
  4054ba:	41 d3 e1             	shl    %cl,%r9d
  4054bd:	44 89 cf             	mov    %r9d,%edi
  4054c0:	41 81 e1 ff ff ff 1f 	and    $0x1fffffff,%r9d
  4054c7:	41 f7 c1 00 00 00 10 	test   $0x10000000,%r9d
  4054ce:	0f 85 a6 02 00 00    	jne    40577a <__libm_cos_e7+0x5ba>
  4054d4:	41 d3 e9             	shr    %cl,%r9d
  4054d7:	bb 00 00 00 00       	mov    $0x0,%ebx
  4054dc:	49 c1 e1 20          	shl    $0x20,%r9
  4054e0:	4d 09 d9             	or     %r11,%r9
  4054e3:	49 83 f9 00          	cmp    $0x0,%r9
  4054e7:	0f 84 07 02 00 00    	je     4056f4 <__libm_cos_e7+0x534>
  4054ed:	4d 0f bd d9          	bsr    %r9,%r11
  4054f1:	b9 1d 00 00 00       	mov    $0x1d,%ecx
  4054f6:	44 29 d9             	sub    %r11d,%ecx
  4054f9:	0f 8e 2f 02 00 00    	jle    40572e <__libm_cos_e7+0x56e>
  4054ff:	49 d3 e1             	shl    %cl,%r9
  405502:	4c 89 d0             	mov    %r10,%rax
  405505:	49 d3 e2             	shl    %cl,%r10
  405508:	01 ca                	add    %ecx,%edx
  40550a:	f7 d9                	neg    %ecx
  40550c:	83 c1 40             	add    $0x40,%ecx
  40550f:	48 d3 e8             	shr    %cl,%rax
  405512:	49 d3 e8             	shr    %cl,%r8
  405515:	49 09 c1             	or     %rax,%r9
  405518:	4d 09 c2             	or     %r8,%r10
  40551b:	f2 49 0f 2a c1       	cvtsi2sd %r9,%xmm0
  405520:	49 d1 ea             	shr    %r10
  405523:	f2 49 0f 2a da       	cvtsi2sd %r10,%xmm3
  405528:	66 0f 57 e4          	xorpd  %xmm4,%xmm4
  40552c:	c1 e2 04             	shl    $0x4,%edx
  40552f:	f7 da                	neg    %edx
  405531:	81 c2 f0 3f 00 00    	add    $0x3ff0,%edx
  405537:	09 f2                	or     %esi,%edx
  405539:	31 da                	xor    %ebx,%edx
  40553b:	66 0f c4 e2 03       	pinsrw $0x3,%edx,%xmm4
  405540:	f3 0f 7e 15 68 e2 00 	movq   0xe268(%rip),%xmm2        # 4137b0 <PI_4>
  405547:	00 
  405548:	f3 0f 7e 35 68 e2 00 	movq   0xe268(%rip),%xmm6        # 4137b8 <PI_4+0x8>
  40554f:	00 
  405550:	66 0f 57 ed          	xorpd  %xmm5,%xmm5
  405554:	81 ea f0 03 00 00    	sub    $0x3f0,%edx
  40555a:	66 0f c4 ea 03       	pinsrw $0x3,%edx,%xmm5
  40555f:	f2 0f 59 c4          	mulsd  %xmm4,%xmm0
  405563:	c1 e6 10             	shl    $0x10,%esi
  405566:	c1 fe 1f             	sar    $0x1f,%esi
  405569:	f2 0f 59 dd          	mulsd  %xmm5,%xmm3
  40556d:	f3 0f 7e c8          	movq   %xmm0,%xmm1
  405571:	f2 0f 59 c2          	mulsd  %xmm2,%xmm0
  405575:	c1 ef 1d             	shr    $0x1d,%edi
  405578:	f2 0f 58 cb          	addsd  %xmm3,%xmm1
  40557c:	f2 0f 59 da          	mulsd  %xmm2,%xmm3
  405580:	01 f7                	add    %esi,%edi
  405582:	31 f7                	xor    %esi,%edi
  405584:	f2 0f 59 f1          	mulsd  %xmm1,%xmm6
  405588:	89 f8                	mov    %edi,%eax
  40558a:	f2 0f 58 f3          	addsd  %xmm3,%xmm6
  40558e:	f3 0f 7e d0          	movq   %xmm0,%xmm2
  405592:	f2 0f 58 c6          	addsd  %xmm6,%xmm0
  405596:	f2 0f 5c d0          	subsd  %xmm0,%xmm2
  40559a:	f2 0f 58 f2          	addsd  %xmm2,%xmm6
  40559e:	f3 0f 7e 0d aa d8 00 	movq   0xd8aa(%rip),%xmm1        # 412e50 <PI32INV>
  4055a5:	00 
  4055a6:	f2 0f 59 c8          	mulsd  %xmm0,%xmm1
  4055aa:	f3 0f 7e 2d ae d8 00 	movq   0xd8ae(%rip),%xmm5        # 412e60 <ONEHALF>
  4055b1:	00 
  4055b2:	f3 0f 7e 25 b6 d8 00 	movq   0xd8b6(%rip),%xmm4        # 412e70 <SIGN_MASK>
  4055b9:	00 
  4055ba:	66 0f 54 e0          	andpd  %xmm0,%xmm4
  4055be:	0f 56 ec             	orps   %xmm4,%xmm5
  4055c1:	66 0f 58 cd          	addpd  %xmm5,%xmm1
  4055c5:	f2 48 0f 2c d1       	cvttsd2si %xmm1,%rdx
  4055ca:	f2 48 0f 2a ca       	cvtsi2sd %rdx,%xmm1
  4055cf:	f3 0f 7e 1d b9 d8 00 	movq   0xd8b9(%rip),%xmm3        # 412e90 <P_1>
  4055d6:	00 
  4055d7:	66 0f 28 15 a1 d8 00 	movapd 0xd8a1(%rip),%xmm2        # 412e80 <P_2>
  4055de:	00 
  4055df:	f2 0f 59 d9          	mulsd  %xmm1,%xmm3
  4055e3:	66 0f 14 c9          	unpcklpd %xmm1,%xmm1
  4055e7:	c1 e0 03             	shl    $0x3,%eax
  4055ea:	81 c2 10 76 1c 00    	add    $0x1c7610,%edx
  4055f0:	f3 0f 7e e0          	movq   %xmm0,%xmm4
  4055f4:	01 c2                	add    %eax,%edx
  4055f6:	83 e2 3f             	and    $0x3f,%edx
  4055f9:	66 0f 28 2d 9f d8 00 	movapd 0xd89f(%rip),%xmm5        # 412ea0 <SC_4>
  405600:	00 
  405601:	48 8d 05 a8 d8 00 00 	lea    0xd8a8(%rip),%rax        # 412eb0 <Ctable>
  405608:	c1 e2 05             	shl    $0x5,%edx
  40560b:	48 01 d0             	add    %rdx,%rax
  40560e:	66 0f 59 d1          	mulpd  %xmm1,%xmm2
  405612:	f2 0f 5c c3          	subsd  %xmm3,%xmm0
  405616:	f2 0f 59 0d 92 e0 00 	mulsd  0xe092(%rip),%xmm1        # 4136b0 <P_3>
  40561d:	00 
  40561e:	f2 0f 5c e3          	subsd  %xmm3,%xmm4
  405622:	f3 0f 7e 78 08       	movq   0x8(%rax),%xmm7
  405627:	66 0f 14 c0          	unpcklpd %xmm0,%xmm0
  40562b:	f3 0f 7e dc          	movq   %xmm4,%xmm3
  40562f:	f2 0f 5c e2          	subsd  %xmm2,%xmm4
  405633:	66 0f 59 e8          	mulpd  %xmm0,%xmm5
  405637:	66 0f 5c c2          	subpd  %xmm2,%xmm0
  40563b:	f2 0f 59 fc          	mulsd  %xmm4,%xmm7
  40563f:	f2 0f 5c dc          	subsd  %xmm4,%xmm3
  405643:	66 0f 59 e8          	mulpd  %xmm0,%xmm5
  405647:	66 0f 59 c0          	mulpd  %xmm0,%xmm0
  40564b:	f2 0f 5c da          	subsd  %xmm2,%xmm3
  40564f:	66 0f 28 10          	movapd (%rax),%xmm2
  405653:	f2 0f 5c cb          	subsd  %xmm3,%xmm1
  405657:	f3 0f 7e 58 18       	movq   0x18(%rax),%xmm3
  40565c:	f2 0f 58 d3          	addsd  %xmm3,%xmm2
  405660:	f2 0f 5c fa          	subsd  %xmm2,%xmm7
  405664:	f2 0f 5c ce          	subsd  %xmm6,%xmm1
  405668:	66 0f 28 35 50 e0 00 	movapd 0xe050(%rip),%xmm6        # 4136c0 <SC_2>
  40566f:	00 
  405670:	f2 0f 59 d4          	mulsd  %xmm4,%xmm2
  405674:	66 0f 59 f0          	mulpd  %xmm0,%xmm6
  405678:	f2 0f 59 dc          	mulsd  %xmm4,%xmm3
  40567c:	66 0f 59 d0          	mulpd  %xmm0,%xmm2
  405680:	66 0f 59 c0          	mulpd  %xmm0,%xmm0
  405684:	66 0f 58 2d 44 e0 00 	addpd  0xe044(%rip),%xmm5        # 4136d0 <SC_3>
  40568b:	00 
  40568c:	f2 0f 59 20          	mulsd  (%rax),%xmm4
  405690:	66 0f 58 35 48 e0 00 	addpd  0xe048(%rip),%xmm6        # 4136e0 <SC_1>
  405697:	00 
  405698:	66 0f 59 e8          	mulpd  %xmm0,%xmm5
  40569c:	f3 0f 7e c3          	movq   %xmm3,%xmm0
  4056a0:	f2 0f 58 58 08       	addsd  0x8(%rax),%xmm3
  4056a5:	66 0f 59 cf          	mulpd  %xmm7,%xmm1
  4056a9:	f3 0f 7e fc          	movq   %xmm4,%xmm7
  4056ad:	f2 0f 58 e3          	addsd  %xmm3,%xmm4
  4056b1:	66 0f 58 f5          	addpd  %xmm5,%xmm6
  4056b5:	f3 0f 7e 68 08       	movq   0x8(%rax),%xmm5
  4056ba:	f2 0f 5c eb          	subsd  %xmm3,%xmm5
  4056be:	f2 0f 5c dc          	subsd  %xmm4,%xmm3
  4056c2:	f2 0f 58 48 10       	addsd  0x10(%rax),%xmm1
  4056c7:	66 0f 59 f2          	mulpd  %xmm2,%xmm6
  4056cb:	f2 0f 58 e8          	addsd  %xmm0,%xmm5
  4056cf:	f2 0f 58 df          	addsd  %xmm7,%xmm3
  4056d3:	f2 0f 58 cd          	addsd  %xmm5,%xmm1
  4056d7:	f2 0f 58 cb          	addsd  %xmm3,%xmm1
  4056db:	f2 0f 58 ce          	addsd  %xmm6,%xmm1
  4056df:	66 0f 15 f6          	unpckhpd %xmm6,%xmm6
  4056e3:	f3 0f 7e c4          	movq   %xmm4,%xmm0
  4056e7:	f2 0f 58 ce          	addsd  %xmm6,%xmm1
  4056eb:	f2 0f 58 c1          	addsd  %xmm1,%xmm0
  4056ef:	e9 23 01 00 00       	jmpq   405817 <__libm_cos_e7+0x657>
  4056f4:	83 c2 40             	add    $0x40,%edx
  4056f7:	4d 89 d1             	mov    %r10,%r9
  4056fa:	4d 89 c2             	mov    %r8,%r10
  4056fd:	49 c7 c0 00 00 00 00 	mov    $0x0,%r8
  405704:	49 83 f9 00          	cmp    $0x0,%r9
  405708:	0f 85 df fd ff ff    	jne    4054ed <__libm_cos_e7+0x32d>
  40570e:	83 c2 40             	add    $0x40,%edx
  405711:	4d 89 d1             	mov    %r10,%r9
  405714:	4d 89 c2             	mov    %r8,%r10
  405717:	49 83 f9 00          	cmp    $0x0,%r9
  40571b:	0f 85 cc fd ff ff    	jne    4054ed <__libm_cos_e7+0x32d>
  405721:	66 0f 57 c0          	xorpd  %xmm0,%xmm0
  405725:	66 0f 57 f6          	xorpd  %xmm6,%xmm6
  405729:	e9 70 fe ff ff       	jmpq   40559e <__libm_cos_e7+0x3de>
  40572e:	0f 84 e7 fd ff ff    	je     40551b <__libm_cos_e7+0x35b>
  405734:	f7 d9                	neg    %ecx
  405736:	49 d3 ea             	shr    %cl,%r10
  405739:	4c 89 c8             	mov    %r9,%rax
  40573c:	49 d3 e9             	shr    %cl,%r9
  40573f:	29 ca                	sub    %ecx,%edx
  405741:	f7 d9                	neg    %ecx
  405743:	83 c1 40             	add    $0x40,%ecx
  405746:	48 d3 e0             	shl    %cl,%rax
  405749:	49 09 c2             	or     %rax,%r10
  40574c:	e9 ca fd ff ff       	jmpq   40551b <__libm_cos_e7+0x35b>
  405751:	f7 d9                	neg    %ecx
  405753:	49 c1 e1 20          	shl    $0x20,%r9
  405757:	4d 09 d9             	or     %r11,%r9
  40575a:	49 d3 e1             	shl    %cl,%r9
  40575d:	4c 89 cf             	mov    %r9,%rdi
  405760:	41 f7 c1 00 00 00 80 	test   $0x80000000,%r9d
  405767:	75 56                	jne    4057bf <__libm_cos_e7+0x5ff>
  405769:	41 d3 e9             	shr    %cl,%r9d
  40576c:	bb 00 00 00 00       	mov    $0x0,%ebx
  405771:	48 c1 ef 03          	shr    $0x3,%rdi
  405775:	e9 69 fd ff ff       	jmpq   4054e3 <__libm_cos_e7+0x323>
  40577a:	41 d3 e9             	shr    %cl,%r9d
  40577d:	bb 00 00 00 20       	mov    $0x20000000,%ebx
  405782:	d3 eb                	shr    %cl,%ebx
  405784:	49 c1 e1 20          	shl    $0x20,%r9
  405788:	4d 09 d9             	or     %r11,%r9
  40578b:	48 c1 e3 20          	shl    $0x20,%rbx
  40578f:	81 c7 00 00 00 20    	add    $0x20000000,%edi
  405795:	48 c7 c1 00 00 00 00 	mov    $0x0,%rcx
  40579c:	49 c7 c3 00 00 00 00 	mov    $0x0,%r11
  4057a3:	4c 29 c1             	sub    %r8,%rcx
  4057a6:	4d 19 d3             	sbb    %r10,%r11
  4057a9:	4c 19 cb             	sbb    %r9,%rbx
  4057ac:	49 89 c8             	mov    %rcx,%r8
  4057af:	4d 89 da             	mov    %r11,%r10
  4057b2:	49 89 d9             	mov    %rbx,%r9
  4057b5:	bb 00 80 00 00       	mov    $0x8000,%ebx
  4057ba:	e9 24 fd ff ff       	jmpq   4054e3 <__libm_cos_e7+0x323>
  4057bf:	41 d3 e9             	shr    %cl,%r9d
  4057c2:	48 bb 00 00 00 00 01 	movabs $0x100000000,%rbx
  4057c9:	00 00 00 
  4057cc:	48 d3 eb             	shr    %cl,%rbx
  4057cf:	48 c7 c1 00 00 00 00 	mov    $0x0,%rcx
  4057d6:	49 c7 c3 00 00 00 00 	mov    $0x0,%r11
  4057dd:	4c 29 c1             	sub    %r8,%rcx
  4057e0:	4d 19 d3             	sbb    %r10,%r11
  4057e3:	4c 19 cb             	sbb    %r9,%rbx
  4057e6:	49 89 c8             	mov    %rcx,%r8
  4057e9:	4d 89 da             	mov    %r11,%r10
  4057ec:	49 89 d9             	mov    %rbx,%r9
  4057ef:	bb 00 80 00 00       	mov    $0x8000,%ebx
  4057f4:	48 c1 ef 03          	shr    $0x3,%rdi
  4057f8:	81 c7 00 00 00 20    	add    $0x20000000,%edi
  4057fe:	e9 e0 fc ff ff       	jmpq   4054e3 <__libm_cos_e7+0x323>
  405803:	f2 0f 10 44 24 f0    	movsd  -0x10(%rsp),%xmm0
  405809:	f2 0f 59 05 af df 00 	mulsd  0xdfaf(%rip),%xmm0        # 4137c0 <NEG_ZERO>
  405810:	00 
  405811:	66 0f d6 44 24 f8    	movq   %xmm0,-0x8(%rsp)
  405817:	5b                   	pop    %rbx
  405818:	c3                   	retq   
  405819:	0f 1f 80 00 00 00 00 	nopl   0x0(%rax)

0000000000405820 <__libm_cos_y8>:
  405820:	f3 0f 1e fa          	endbr64 
  405824:	53                   	push   %rbx
  405825:	f2 0f 11 44 24 f0    	movsd  %xmm0,-0x10(%rsp)
  40582b:	8b 44 24 f4          	mov    -0xc(%rsp),%eax
  40582f:	f3 0f 7e 0d 99 df 00 	movq   0xdf99(%rip),%xmm1        # 4137d0 <PI32INV>
  405836:	00 
  405837:	25 00 00 ff 7f       	and    $0x7fff0000,%eax
  40583c:	2d 00 00 30 30       	sub    $0x30300000,%eax
  405841:	3d 00 00 c5 10       	cmp    $0x10c50000,%eax
  405846:	0f 87 29 01 00 00    	ja     405975 <__libm_cos_y8+0x155>
  40584c:	f2 0f 59 c8          	mulsd  %xmm0,%xmm1
  405850:	66 0f 28 15 88 df 00 	movapd 0xdf88(%rip),%xmm2        # 4137e0 <P_2>
  405857:	00 
  405858:	66 0f 3a 0b c9 00    	roundsd $0x0,%xmm1,%xmm1
  40585e:	f2 0f 2d d1          	cvtsd2si %xmm1,%edx
  405862:	f3 0f 7e 1d 86 df 00 	movq   0xdf86(%rip),%xmm3        # 4137f0 <P_1>
  405869:	00 
  40586a:	f2 0f 59 d9          	mulsd  %xmm1,%xmm3
  40586e:	66 0f 14 c9          	unpcklpd %xmm1,%xmm1
  405872:	48 81 c2 10 76 1c 00 	add    $0x1c7610,%rdx
  405879:	f3 0f 7e e0          	movq   %xmm0,%xmm4
  40587d:	48 83 e2 3f          	and    $0x3f,%rdx
  405881:	66 0f 28 2d 77 df 00 	movapd 0xdf77(%rip),%xmm5        # 413800 <SC_4>
  405888:	00 
  405889:	48 8d 05 80 df 00 00 	lea    0xdf80(%rip),%rax        # 413810 <Ctable>
  405890:	48 c1 e2 05          	shl    $0x5,%rdx
  405894:	48 01 d0             	add    %rdx,%rax
  405897:	66 0f 59 d1          	mulpd  %xmm1,%xmm2
  40589b:	f2 0f 5c c3          	subsd  %xmm3,%xmm0
  40589f:	f2 0f 59 0d 69 e7 00 	mulsd  0xe769(%rip),%xmm1        # 414010 <P_3>
  4058a6:	00 
  4058a7:	f2 0f 5c e3          	subsd  %xmm3,%xmm4
  4058ab:	f3 0f 7e 78 08       	movq   0x8(%rax),%xmm7
  4058b0:	66 0f 14 c0          	unpcklpd %xmm0,%xmm0
  4058b4:	f3 0f 7e dc          	movq   %xmm4,%xmm3
  4058b8:	f2 0f 5c e2          	subsd  %xmm2,%xmm4
  4058bc:	66 0f 59 e8          	mulpd  %xmm0,%xmm5
  4058c0:	66 0f 5c c2          	subpd  %xmm2,%xmm0
  4058c4:	66 0f 28 35 54 e7 00 	movapd 0xe754(%rip),%xmm6        # 414020 <SC_2>
  4058cb:	00 
  4058cc:	f2 0f 59 fc          	mulsd  %xmm4,%xmm7
  4058d0:	f2 0f 5c dc          	subsd  %xmm4,%xmm3
  4058d4:	66 0f 59 e8          	mulpd  %xmm0,%xmm5
  4058d8:	66 0f 59 c0          	mulpd  %xmm0,%xmm0
  4058dc:	f2 0f 5c da          	subsd  %xmm2,%xmm3
  4058e0:	66 0f 28 10          	movapd (%rax),%xmm2
  4058e4:	f2 0f 5c cb          	subsd  %xmm3,%xmm1
  4058e8:	f3 0f 7e 58 18       	movq   0x18(%rax),%xmm3
  4058ed:	f2 0f 58 d3          	addsd  %xmm3,%xmm2
  4058f1:	f2 0f 5c fa          	subsd  %xmm2,%xmm7
  4058f5:	f2 0f 59 d4          	mulsd  %xmm4,%xmm2
  4058f9:	66 0f 59 f0          	mulpd  %xmm0,%xmm6
  4058fd:	f2 0f 59 dc          	mulsd  %xmm4,%xmm3
  405901:	66 0f 59 d0          	mulpd  %xmm0,%xmm2
  405905:	66 0f 59 c0          	mulpd  %xmm0,%xmm0
  405909:	66 0f 58 2d 1f e7 00 	addpd  0xe71f(%rip),%xmm5        # 414030 <SC_3>
  405910:	00 
  405911:	f2 0f 59 20          	mulsd  (%rax),%xmm4
  405915:	66 0f 58 35 23 e7 00 	addpd  0xe723(%rip),%xmm6        # 414040 <SC_1>
  40591c:	00 
  40591d:	66 0f 59 e8          	mulpd  %xmm0,%xmm5
  405921:	f3 0f 7e c3          	movq   %xmm3,%xmm0
  405925:	f2 0f 58 58 08       	addsd  0x8(%rax),%xmm3
  40592a:	66 0f 59 cf          	mulpd  %xmm7,%xmm1
  40592e:	f3 0f 7e fc          	movq   %xmm4,%xmm7
  405932:	f2 0f 58 e3          	addsd  %xmm3,%xmm4
  405936:	66 0f 58 f5          	addpd  %xmm5,%xmm6
  40593a:	f3 0f 7e 68 08       	movq   0x8(%rax),%xmm5
  40593f:	f2 0f 5c eb          	subsd  %xmm3,%xmm5
  405943:	f2 0f 5c dc          	subsd  %xmm4,%xmm3
  405947:	f2 0f 58 48 10       	addsd  0x10(%rax),%xmm1
  40594c:	66 0f 59 f2          	mulpd  %xmm2,%xmm6
  405950:	f2 0f 58 c5          	addsd  %xmm5,%xmm0
  405954:	f2 0f 58 df          	addsd  %xmm7,%xmm3
  405958:	f2 0f 58 c1          	addsd  %xmm1,%xmm0
  40595c:	f2 0f 58 c3          	addsd  %xmm3,%xmm0
  405960:	f2 0f 58 c6          	addsd  %xmm6,%xmm0
  405964:	66 0f 15 f6          	unpckhpd %xmm6,%xmm6
  405968:	f2 0f 58 c6          	addsd  %xmm6,%xmm0
  40596c:	f2 0f 58 c4          	addsd  %xmm4,%xmm0
  405970:	e9 d7 04 00 00       	jmpq   405e4c <__libm_cos_y8+0x62c>
  405975:	7f 23                	jg     40599a <__libm_cos_y8+0x17a>
  405977:	66 0f c5 c0 03       	pextrw $0x3,%xmm0,%eax
  40597c:	66 25 ff 7f          	and    $0x7fff,%ax
  405980:	66 0f c4 c0 03       	pinsrw $0x3,%eax,%xmm0
  405985:	f3 0f 7e 0d c3 e6 00 	movq   0xe6c3(%rip),%xmm1        # 414050 <ONE>
  40598c:	00 
  40598d:	f2 0f 5c c8          	subsd  %xmm0,%xmm1
  405991:	f3 0f 7e c1          	movq   %xmm1,%xmm0
  405995:	e9 b2 04 00 00       	jmpq   405e4c <__libm_cos_y8+0x62c>
  40599a:	66 0f c5 c0 03       	pextrw $0x3,%xmm0,%eax
  40599f:	25 f0 7f 00 00       	and    $0x7ff0,%eax
  4059a4:	3d f0 7f 00 00       	cmp    $0x7ff0,%eax
  4059a9:	0f 84 89 04 00 00    	je     405e38 <__libm_cos_y8+0x618>
  4059af:	66 0f c5 c8 03       	pextrw $0x3,%xmm0,%ecx
  4059b4:	81 e1 f0 7f 00 00    	and    $0x7ff0,%ecx
  4059ba:	81 e9 60 3f 00 00    	sub    $0x3f60,%ecx
  4059c0:	c1 e9 07             	shr    $0x7,%ecx
  4059c3:	81 e1 fc ff 00 00    	and    $0xfffc,%ecx
  4059c9:	4c 8d 1d 90 e6 00 00 	lea    0xe690(%rip),%r11        # 414060 <PI_INV_TABLE>
  4059d0:	4c 01 d9             	add    %r11,%rcx
  4059d3:	66 48 0f 7e c0       	movq   %xmm0,%rax
  4059d8:	44 8b 51 14          	mov    0x14(%rcx),%r10d
  4059dc:	44 8b 41 18          	mov    0x18(%rcx),%r8d
  4059e0:	89 c2                	mov    %eax,%edx
  4059e2:	48 c1 e8 15          	shr    $0x15,%rax
  4059e6:	0d 00 00 00 80       	or     $0x80000000,%eax
  4059eb:	c1 e8 0b             	shr    $0xb,%eax
  4059ee:	45 89 d1             	mov    %r10d,%r9d
  4059f1:	4c 0f af d2          	imul   %rdx,%r10
  4059f5:	4c 0f af c8          	imul   %rax,%r9
  4059f9:	4c 0f af c0          	imul   %rax,%r8
  4059fd:	8b 71 10             	mov    0x10(%rcx),%esi
  405a00:	8b 79 0c             	mov    0xc(%rcx),%edi
  405a03:	45 89 d3             	mov    %r10d,%r11d
  405a06:	49 c1 ea 20          	shr    $0x20,%r10
  405a0a:	4d 01 d1             	add    %r10,%r9
  405a0d:	4d 01 c3             	add    %r8,%r11
  405a10:	45 89 d8             	mov    %r11d,%r8d
  405a13:	49 c1 eb 20          	shr    $0x20,%r11
  405a17:	4d 01 d9             	add    %r11,%r9
  405a1a:	41 89 f2             	mov    %esi,%r10d
  405a1d:	48 0f af f2          	imul   %rdx,%rsi
  405a21:	4c 0f af d0          	imul   %rax,%r10
  405a25:	41 89 fb             	mov    %edi,%r11d
  405a28:	48 0f af fa          	imul   %rdx,%rdi
  405a2c:	89 f3                	mov    %esi,%ebx
  405a2e:	48 c1 ee 20          	shr    $0x20,%rsi
  405a32:	49 01 d9             	add    %rbx,%r9
  405a35:	44 89 cb             	mov    %r9d,%ebx
  405a38:	49 c1 e9 20          	shr    $0x20,%r9
  405a3c:	49 01 f2             	add    %rsi,%r10
  405a3f:	4d 01 ca             	add    %r9,%r10
  405a42:	48 c1 e3 20          	shl    $0x20,%rbx
  405a46:	49 09 d8             	or     %rbx,%r8
  405a49:	4c 0f af d8          	imul   %rax,%r11
  405a4d:	44 8b 49 08          	mov    0x8(%rcx),%r9d
  405a51:	8b 71 04             	mov    0x4(%rcx),%esi
  405a54:	89 fb                	mov    %edi,%ebx
  405a56:	48 c1 ef 20          	shr    $0x20,%rdi
  405a5a:	49 01 da             	add    %rbx,%r10
  405a5d:	44 89 d3             	mov    %r10d,%ebx
  405a60:	49 c1 ea 20          	shr    $0x20,%r10
  405a64:	49 01 fb             	add    %rdi,%r11
  405a67:	4d 01 d3             	add    %r10,%r11
  405a6a:	4c 89 cf             	mov    %r9,%rdi
  405a6d:	4c 0f af ca          	imul   %rdx,%r9
  405a71:	48 0f af f8          	imul   %rax,%rdi
  405a75:	45 89 ca             	mov    %r9d,%r10d
  405a78:	49 c1 e9 20          	shr    $0x20,%r9
  405a7c:	4d 01 d3             	add    %r10,%r11
  405a7f:	45 89 da             	mov    %r11d,%r10d
  405a82:	49 c1 eb 20          	shr    $0x20,%r11
  405a86:	4c 01 cf             	add    %r9,%rdi
  405a89:	4c 01 df             	add    %r11,%rdi
  405a8c:	49 89 f1             	mov    %rsi,%r9
  405a8f:	48 0f af f2          	imul   %rdx,%rsi
  405a93:	4c 0f af c8          	imul   %rax,%r9
  405a97:	49 c1 e2 20          	shl    $0x20,%r10
  405a9b:	49 09 da             	or     %rbx,%r10
  405a9e:	8b 01                	mov    (%rcx),%eax
  405aa0:	41 89 f3             	mov    %esi,%r11d
  405aa3:	48 c1 ee 20          	shr    $0x20,%rsi
  405aa7:	4c 01 df             	add    %r11,%rdi
  405aaa:	41 89 fb             	mov    %edi,%r11d
  405aad:	48 c1 ef 20          	shr    $0x20,%rdi
  405ab1:	49 01 f1             	add    %rsi,%r9
  405ab4:	49 01 f9             	add    %rdi,%r9
  405ab7:	48 0f af d0          	imul   %rax,%rdx
  405abb:	66 0f c5 d8 03       	pextrw $0x3,%xmm0,%ebx
  405ac0:	48 8d 3d 99 e5 00 00 	lea    0xe599(%rip),%rdi        # 414060 <PI_INV_TABLE>
  405ac7:	48 29 f9             	sub    %rdi,%rcx
  405aca:	01 c9                	add    %ecx,%ecx
  405acc:	01 c9                	add    %ecx,%ecx
  405ace:	01 c9                	add    %ecx,%ecx
  405ad0:	83 c1 13             	add    $0x13,%ecx
  405ad3:	be 00 80 00 00       	mov    $0x8000,%esi
  405ad8:	21 de                	and    %ebx,%esi
  405ada:	c1 eb 04             	shr    $0x4,%ebx
  405add:	81 e3 ff 07 00 00    	and    $0x7ff,%ebx
  405ae3:	81 eb ff 03 00 00    	sub    $0x3ff,%ebx
  405ae9:	29 d9                	sub    %ebx,%ecx
  405aeb:	49 01 d1             	add    %rdx,%r9
  405aee:	89 ca                	mov    %ecx,%edx
  405af0:	83 c2 20             	add    $0x20,%edx
  405af3:	83 f9 01             	cmp    $0x1,%ecx
  405af6:	0f 8c 8a 02 00 00    	jl     405d86 <__libm_cos_y8+0x566>
  405afc:	f7 d9                	neg    %ecx
  405afe:	83 c1 1d             	add    $0x1d,%ecx
  405b01:	41 d3 e1             	shl    %cl,%r9d
  405b04:	44 89 cf             	mov    %r9d,%edi
  405b07:	41 81 e1 ff ff ff 1f 	and    $0x1fffffff,%r9d
  405b0e:	41 f7 c1 00 00 00 10 	test   $0x10000000,%r9d
  405b15:	0f 85 94 02 00 00    	jne    405daf <__libm_cos_y8+0x58f>
  405b1b:	41 d3 e9             	shr    %cl,%r9d
  405b1e:	bb 00 00 00 00       	mov    $0x0,%ebx
  405b23:	49 c1 e1 20          	shl    $0x20,%r9
  405b27:	4d 09 d9             	or     %r11,%r9
  405b2a:	49 83 f9 00          	cmp    $0x0,%r9
  405b2e:	0f 84 f5 01 00 00    	je     405d29 <__libm_cos_y8+0x509>
  405b34:	4d 0f bd d9          	bsr    %r9,%r11
  405b38:	b9 1d 00 00 00       	mov    $0x1d,%ecx
  405b3d:	44 29 d9             	sub    %r11d,%ecx
  405b40:	0f 8e 1d 02 00 00    	jle    405d63 <__libm_cos_y8+0x543>
  405b46:	49 d3 e1             	shl    %cl,%r9
  405b49:	4c 89 d0             	mov    %r10,%rax
  405b4c:	49 d3 e2             	shl    %cl,%r10
  405b4f:	01 ca                	add    %ecx,%edx
  405b51:	f7 d9                	neg    %ecx
  405b53:	83 c1 40             	add    $0x40,%ecx
  405b56:	48 d3 e8             	shr    %cl,%rax
  405b59:	49 d3 e8             	shr    %cl,%r8
  405b5c:	49 09 c1             	or     %rax,%r9
  405b5f:	4d 09 c2             	or     %r8,%r10
  405b62:	f2 49 0f 2a c1       	cvtsi2sd %r9,%xmm0
  405b67:	49 d1 ea             	shr    %r10
  405b6a:	f2 49 0f 2a da       	cvtsi2sd %r10,%xmm3
  405b6f:	66 0f 57 e4          	xorpd  %xmm4,%xmm4
  405b73:	c1 e2 04             	shl    $0x4,%edx
  405b76:	f7 da                	neg    %edx
  405b78:	81 c2 f0 3f 00 00    	add    $0x3ff0,%edx
  405b7e:	09 f2                	or     %esi,%edx
  405b80:	31 da                	xor    %ebx,%edx
  405b82:	66 0f c4 e2 03       	pinsrw $0x3,%edx,%xmm4
  405b87:	f3 0f 7e 15 81 e5 00 	movq   0xe581(%rip),%xmm2        # 414110 <PI_4>
  405b8e:	00 
  405b8f:	f3 0f 7e 35 81 e5 00 	movq   0xe581(%rip),%xmm6        # 414118 <PI_4+0x8>
  405b96:	00 
  405b97:	66 0f 57 ed          	xorpd  %xmm5,%xmm5
  405b9b:	81 ea f0 03 00 00    	sub    $0x3f0,%edx
  405ba1:	66 0f c4 ea 03       	pinsrw $0x3,%edx,%xmm5
  405ba6:	f2 0f 59 c4          	mulsd  %xmm4,%xmm0
  405baa:	c1 e6 10             	shl    $0x10,%esi
  405bad:	c1 fe 1f             	sar    $0x1f,%esi
  405bb0:	f2 0f 59 dd          	mulsd  %xmm5,%xmm3
  405bb4:	f3 0f 7e c8          	movq   %xmm0,%xmm1
  405bb8:	f2 0f 59 c2          	mulsd  %xmm2,%xmm0
  405bbc:	c1 ef 1d             	shr    $0x1d,%edi
  405bbf:	f2 0f 58 cb          	addsd  %xmm3,%xmm1
  405bc3:	f2 0f 59 da          	mulsd  %xmm2,%xmm3
  405bc7:	01 f7                	add    %esi,%edi
  405bc9:	31 f7                	xor    %esi,%edi
  405bcb:	f2 0f 59 f1          	mulsd  %xmm1,%xmm6
  405bcf:	89 f8                	mov    %edi,%eax
  405bd1:	f2 0f 58 f3          	addsd  %xmm3,%xmm6
  405bd5:	f3 0f 7e d0          	movq   %xmm0,%xmm2
  405bd9:	f2 0f 58 c6          	addsd  %xmm6,%xmm0
  405bdd:	f2 0f 5c d0          	subsd  %xmm0,%xmm2
  405be1:	f2 0f 58 f2          	addsd  %xmm2,%xmm6
  405be5:	f3 0f 7e 0d e3 db 00 	movq   0xdbe3(%rip),%xmm1        # 4137d0 <PI32INV>
  405bec:	00 
  405bed:	f2 0f 59 c8          	mulsd  %xmm0,%xmm1
  405bf1:	f3 0f 7e 15 27 e5 00 	movq   0xe527(%rip),%xmm2        # 414120 <SHIFTER>
  405bf8:	00 
  405bf9:	66 0f 3a 0b c9 00    	roundsd $0x0,%xmm1,%xmm1
  405bff:	f2 48 0f 2d d1       	cvtsd2si %xmm1,%rdx
  405c04:	f3 0f 7e 1d e4 db 00 	movq   0xdbe4(%rip),%xmm3        # 4137f0 <P_1>
  405c0b:	00 
  405c0c:	66 0f 28 15 cc db 00 	movapd 0xdbcc(%rip),%xmm2        # 4137e0 <P_2>
  405c13:	00 
  405c14:	f2 0f 59 d9          	mulsd  %xmm1,%xmm3
  405c18:	66 0f 14 c9          	unpcklpd %xmm1,%xmm1
  405c1c:	c1 e0 03             	shl    $0x3,%eax
  405c1f:	81 c2 10 76 1c 00    	add    $0x1c7610,%edx
  405c25:	f3 0f 7e e0          	movq   %xmm0,%xmm4
  405c29:	01 c2                	add    %eax,%edx
  405c2b:	83 e2 3f             	and    $0x3f,%edx
  405c2e:	66 0f 28 2d ca db 00 	movapd 0xdbca(%rip),%xmm5        # 413800 <SC_4>
  405c35:	00 
  405c36:	48 8d 05 d3 db 00 00 	lea    0xdbd3(%rip),%rax        # 413810 <Ctable>
  405c3d:	c1 e2 05             	shl    $0x5,%edx
  405c40:	48 01 d0             	add    %rdx,%rax
  405c43:	66 0f 59 d1          	mulpd  %xmm1,%xmm2
  405c47:	f2 0f 5c c3          	subsd  %xmm3,%xmm0
  405c4b:	f2 0f 59 0d bd e3 00 	mulsd  0xe3bd(%rip),%xmm1        # 414010 <P_3>
  405c52:	00 
  405c53:	f2 0f 5c e3          	subsd  %xmm3,%xmm4
  405c57:	f3 0f 7e 78 08       	movq   0x8(%rax),%xmm7
  405c5c:	66 0f 14 c0          	unpcklpd %xmm0,%xmm0
  405c60:	f3 0f 7e dc          	movq   %xmm4,%xmm3
  405c64:	f2 0f 5c e2          	subsd  %xmm2,%xmm4
  405c68:	66 0f 59 e8          	mulpd  %xmm0,%xmm5
  405c6c:	66 0f 5c c2          	subpd  %xmm2,%xmm0
  405c70:	f2 0f 59 fc          	mulsd  %xmm4,%xmm7
  405c74:	f2 0f 5c dc          	subsd  %xmm4,%xmm3
  405c78:	66 0f 59 e8          	mulpd  %xmm0,%xmm5
  405c7c:	66 0f 59 c0          	mulpd  %xmm0,%xmm0
  405c80:	f2 0f 5c da          	subsd  %xmm2,%xmm3
  405c84:	66 0f 28 10          	movapd (%rax),%xmm2
  405c88:	f2 0f 5c cb          	subsd  %xmm3,%xmm1
  405c8c:	f3 0f 7e 58 18       	movq   0x18(%rax),%xmm3
  405c91:	f2 0f 58 d3          	addsd  %xmm3,%xmm2
  405c95:	f2 0f 5c fa          	subsd  %xmm2,%xmm7
  405c99:	f2 0f 5c ce          	subsd  %xmm6,%xmm1
  405c9d:	66 0f 28 35 7b e3 00 	movapd 0xe37b(%rip),%xmm6        # 414020 <SC_2>
  405ca4:	00 
  405ca5:	f2 0f 59 d4          	mulsd  %xmm4,%xmm2
  405ca9:	66 0f 59 f0          	mulpd  %xmm0,%xmm6
  405cad:	f2 0f 59 dc          	mulsd  %xmm4,%xmm3
  405cb1:	66 0f 59 d0          	mulpd  %xmm0,%xmm2
  405cb5:	66 0f 59 c0          	mulpd  %xmm0,%xmm0
  405cb9:	66 0f 58 2d 6f e3 00 	addpd  0xe36f(%rip),%xmm5        # 414030 <SC_3>
  405cc0:	00 
  405cc1:	f2 0f 59 20          	mulsd  (%rax),%xmm4
  405cc5:	66 0f 58 35 73 e3 00 	addpd  0xe373(%rip),%xmm6        # 414040 <SC_1>
  405ccc:	00 
  405ccd:	66 0f 59 e8          	mulpd  %xmm0,%xmm5
  405cd1:	f3 0f 7e c3          	movq   %xmm3,%xmm0
  405cd5:	f2 0f 58 58 08       	addsd  0x8(%rax),%xmm3
  405cda:	66 0f 59 cf          	mulpd  %xmm7,%xmm1
  405cde:	f3 0f 7e fc          	movq   %xmm4,%xmm7
  405ce2:	f2 0f 58 e3          	addsd  %xmm3,%xmm4
  405ce6:	66 0f 58 f5          	addpd  %xmm5,%xmm6
  405cea:	f3 0f 7e 68 08       	movq   0x8(%rax),%xmm5
  405cef:	f2 0f 5c eb          	subsd  %xmm3,%xmm5
  405cf3:	f2 0f 5c dc          	subsd  %xmm4,%xmm3
  405cf7:	f2 0f 58 48 10       	addsd  0x10(%rax),%xmm1
  405cfc:	66 0f 59 f2          	mulpd  %xmm2,%xmm6
  405d00:	f2 0f 58 e8          	addsd  %xmm0,%xmm5
  405d04:	f2 0f 58 df          	addsd  %xmm7,%xmm3
  405d08:	f2 0f 58 cd          	addsd  %xmm5,%xmm1
  405d0c:	f2 0f 58 cb          	addsd  %xmm3,%xmm1
  405d10:	f2 0f 58 ce          	addsd  %xmm6,%xmm1
  405d14:	66 0f 15 f6          	unpckhpd %xmm6,%xmm6
  405d18:	f3 0f 7e c4          	movq   %xmm4,%xmm0
  405d1c:	f2 0f 58 ce          	addsd  %xmm6,%xmm1
  405d20:	f2 0f 58 c1          	addsd  %xmm1,%xmm0
  405d24:	e9 23 01 00 00       	jmpq   405e4c <__libm_cos_y8+0x62c>
  405d29:	83 c2 40             	add    $0x40,%edx
  405d2c:	4d 89 d1             	mov    %r10,%r9
  405d2f:	4d 89 c2             	mov    %r8,%r10
  405d32:	49 c7 c0 00 00 00 00 	mov    $0x0,%r8
  405d39:	49 83 f9 00          	cmp    $0x0,%r9
  405d3d:	0f 85 f1 fd ff ff    	jne    405b34 <__libm_cos_y8+0x314>
  405d43:	83 c2 40             	add    $0x40,%edx
  405d46:	4d 89 d1             	mov    %r10,%r9
  405d49:	4d 89 c2             	mov    %r8,%r10
  405d4c:	49 83 f9 00          	cmp    $0x0,%r9
  405d50:	0f 85 de fd ff ff    	jne    405b34 <__libm_cos_y8+0x314>
  405d56:	66 0f 57 c0          	xorpd  %xmm0,%xmm0
  405d5a:	66 0f 57 f6          	xorpd  %xmm6,%xmm6
  405d5e:	e9 82 fe ff ff       	jmpq   405be5 <__libm_cos_y8+0x3c5>
  405d63:	0f 84 f9 fd ff ff    	je     405b62 <__libm_cos_y8+0x342>
  405d69:	f7 d9                	neg    %ecx
  405d6b:	49 d3 ea             	shr    %cl,%r10
  405d6e:	4c 89 c8             	mov    %r9,%rax
  405d71:	49 d3 e9             	shr    %cl,%r9
  405d74:	29 ca                	sub    %ecx,%edx
  405d76:	f7 d9                	neg    %ecx
  405d78:	83 c1 40             	add    $0x40,%ecx
  405d7b:	48 d3 e0             	shl    %cl,%rax
  405d7e:	49 09 c2             	or     %rax,%r10
  405d81:	e9 dc fd ff ff       	jmpq   405b62 <__libm_cos_y8+0x342>
  405d86:	f7 d9                	neg    %ecx
  405d88:	49 c1 e1 20          	shl    $0x20,%r9
  405d8c:	4d 09 d9             	or     %r11,%r9
  405d8f:	49 d3 e1             	shl    %cl,%r9
  405d92:	4c 89 cf             	mov    %r9,%rdi
  405d95:	41 f7 c1 00 00 00 80 	test   $0x80000000,%r9d
  405d9c:	75 56                	jne    405df4 <__libm_cos_y8+0x5d4>
  405d9e:	41 d3 e9             	shr    %cl,%r9d
  405da1:	bb 00 00 00 00       	mov    $0x0,%ebx
  405da6:	48 c1 ef 03          	shr    $0x3,%rdi
  405daa:	e9 7b fd ff ff       	jmpq   405b2a <__libm_cos_y8+0x30a>
  405daf:	41 d3 e9             	shr    %cl,%r9d
  405db2:	bb 00 00 00 20       	mov    $0x20000000,%ebx
  405db7:	d3 eb                	shr    %cl,%ebx
  405db9:	49 c1 e1 20          	shl    $0x20,%r9
  405dbd:	4d 09 d9             	or     %r11,%r9
  405dc0:	48 c1 e3 20          	shl    $0x20,%rbx
  405dc4:	81 c7 00 00 00 20    	add    $0x20000000,%edi
  405dca:	48 c7 c1 00 00 00 00 	mov    $0x0,%rcx
  405dd1:	49 c7 c3 00 00 00 00 	mov    $0x0,%r11
  405dd8:	4c 29 c1             	sub    %r8,%rcx
  405ddb:	4d 19 d3             	sbb    %r10,%r11
  405dde:	4c 19 cb             	sbb    %r9,%rbx
  405de1:	49 89 c8             	mov    %rcx,%r8
  405de4:	4d 89 da             	mov    %r11,%r10
  405de7:	49 89 d9             	mov    %rbx,%r9
  405dea:	bb 00 80 00 00       	mov    $0x8000,%ebx
  405def:	e9 36 fd ff ff       	jmpq   405b2a <__libm_cos_y8+0x30a>
  405df4:	41 d3 e9             	shr    %cl,%r9d
  405df7:	48 bb 00 00 00 00 01 	movabs $0x100000000,%rbx
  405dfe:	00 00 00 
  405e01:	48 d3 eb             	shr    %cl,%rbx
  405e04:	48 c7 c1 00 00 00 00 	mov    $0x0,%rcx
  405e0b:	49 c7 c3 00 00 00 00 	mov    $0x0,%r11
  405e12:	4c 29 c1             	sub    %r8,%rcx
  405e15:	4d 19 d3             	sbb    %r10,%r11
  405e18:	4c 19 cb             	sbb    %r9,%rbx
  405e1b:	49 89 c8             	mov    %rcx,%r8
  405e1e:	4d 89 da             	mov    %r11,%r10
  405e21:	49 89 d9             	mov    %rbx,%r9
  405e24:	bb 00 80 00 00       	mov    $0x8000,%ebx
  405e29:	48 c1 ef 03          	shr    $0x3,%rdi
  405e2d:	81 c7 00 00 00 20    	add    $0x20000000,%edi
  405e33:	e9 f2 fc ff ff       	jmpq   405b2a <__libm_cos_y8+0x30a>
  405e38:	f2 0f 10 44 24 f0    	movsd  -0x10(%rsp),%xmm0
  405e3e:	f2 0f 59 05 e2 e2 00 	mulsd  0xe2e2(%rip),%xmm0        # 414128 <NEG_ZERO>
  405e45:	00 
  405e46:	66 0f d6 44 24 f8    	movq   %xmm0,-0x8(%rsp)
  405e4c:	5b                   	pop    %rbx
  405e4d:	c3                   	retq   
  405e4e:	66 90                	xchg   %ax,%ax

0000000000405e50 <__libm_exp_ex>:
  405e50:	f3 0f 1e fa          	endbr64 
  405e54:	48 83 ec 18          	sub    $0x18,%rsp
  405e58:	f2 0f 11 44 24 08    	movsd  %xmm0,0x8(%rsp)
  405e5e:	66 0f 14 c0          	unpcklpd %xmm0,%xmm0
  405e62:	66 0f 28 0d c6 e2 00 	movapd 0xe2c6(%rip),%xmm1        # 414130 <cv>
  405e69:	00 
  405e6a:	66 0f 28 35 1e e3 00 	movapd 0xe31e(%rip),%xmm6        # 414190 <Shifter>
  405e71:	00 
  405e72:	66 0f 28 15 c6 e2 00 	movapd 0xe2c6(%rip),%xmm2        # 414140 <cv+0x10>
  405e79:	00 
  405e7a:	66 0f 28 1d ce e2 00 	movapd 0xe2ce(%rip),%xmm3        # 414150 <cv+0x20>
  405e81:	00 
  405e82:	66 0f c5 c0 03       	pextrw $0x3,%xmm0,%eax
  405e87:	25 ff 7f 00 00       	and    $0x7fff,%eax
  405e8c:	ba 8f 40 00 00       	mov    $0x408f,%edx
  405e91:	29 c2                	sub    %eax,%edx
  405e93:	2d 90 3c 00 00       	sub    $0x3c90,%eax
  405e98:	09 c2                	or     %eax,%edx
  405e9a:	81 fa 00 00 00 80    	cmp    $0x80000000,%edx
  405ea0:	0f 83 5c 02 00 00    	jae    406102 <__libm_exp_ex+0x2b2>
  405ea6:	4c 8d 05 f3 e2 00 00 	lea    0xe2f3(%rip),%r8        # 4141a0 <Tbl_addr>
  405ead:	66 0f 59 c8          	mulpd  %xmm0,%xmm1
  405eb1:	66 0f 58 ce          	addpd  %xmm6,%xmm1
  405eb5:	66 0f 28 f9          	movapd %xmm1,%xmm7
  405eb9:	66 0f 5c ce          	subpd  %xmm6,%xmm1
  405ebd:	66 0f 59 d1          	mulpd  %xmm1,%xmm2
  405ec1:	66 0f 28 25 a7 e2 00 	movapd 0xe2a7(%rip),%xmm4        # 414170 <cv+0x40>
  405ec8:	00 
  405ec9:	66 0f 59 d9          	mulpd  %xmm1,%xmm3
  405ecd:	66 0f 28 2d ab e2 00 	movapd 0xe2ab(%rip),%xmm5        # 414180 <cv+0x50>
  405ed4:	00 
  405ed5:	66 0f 5c c2          	subpd  %xmm2,%xmm0
  405ed9:	66 0f 7e f8          	movd   %xmm7,%eax
  405edd:	89 c1                	mov    %eax,%ecx
  405edf:	83 e1 3f             	and    $0x3f,%ecx
  405ee2:	c1 e1 04             	shl    $0x4,%ecx
  405ee5:	c1 f8 06             	sar    $0x6,%eax
  405ee8:	89 c2                	mov    %eax,%edx
  405eea:	66 0f 6f 35 ae e6 00 	movdqa 0xe6ae(%rip),%xmm6        # 4145a0 <mmask>
  405ef1:	00 
  405ef2:	66 0f db fe          	pand   %xmm6,%xmm7
  405ef6:	66 0f 6f 35 b2 e6 00 	movdqa 0xe6b2(%rip),%xmm6        # 4145b0 <bias>
  405efd:	00 
  405efe:	66 0f d4 fe          	paddq  %xmm6,%xmm7
  405f02:	66 0f 73 f7 2e       	psllq  $0x2e,%xmm7
  405f07:	66 0f 5c c3          	subpd  %xmm3,%xmm0
  405f0b:	66 42 0f 28 14 01    	movapd (%rcx,%r8,1),%xmm2
  405f11:	66 0f 59 e0          	mulpd  %xmm0,%xmm4
  405f15:	66 0f 28 f0          	movapd %xmm0,%xmm6
  405f19:	66 0f 28 c8          	movapd %xmm0,%xmm1
  405f1d:	66 0f 59 f6          	mulpd  %xmm6,%xmm6
  405f21:	66 0f 59 c6          	mulpd  %xmm6,%xmm0
  405f25:	66 0f 58 ec          	addpd  %xmm4,%xmm5
  405f29:	f2 0f 59 c6          	mulsd  %xmm6,%xmm0
  405f2d:	66 0f 59 35 2b e2 00 	mulpd  0xe22b(%rip),%xmm6        # 414160 <cv+0x30>
  405f34:	00 
  405f35:	f2 0f 58 ca          	addsd  %xmm2,%xmm1
  405f39:	66 0f 15 d2          	unpckhpd %xmm2,%xmm2
  405f3d:	66 0f 59 c5          	mulpd  %xmm5,%xmm0
  405f41:	f2 0f 58 c8          	addsd  %xmm0,%xmm1
  405f45:	66 0f 56 d7          	orpd   %xmm7,%xmm2
  405f49:	66 0f 15 c0          	unpckhpd %xmm0,%xmm0
  405f4d:	f2 0f 58 c1          	addsd  %xmm1,%xmm0
  405f51:	f2 0f 58 c6          	addsd  %xmm6,%xmm0
  405f55:	81 c2 7e 03 00 00    	add    $0x37e,%edx
  405f5b:	81 fa 7c 07 00 00    	cmp    $0x77c,%edx
  405f61:	77 0d                	ja     405f70 <__libm_exp_ex+0x120>
  405f63:	f2 0f 59 c2          	mulsd  %xmm2,%xmm0
  405f67:	f2 0f 58 c2          	addsd  %xmm2,%xmm0
  405f6b:	e9 d5 01 00 00       	jmpq   406145 <__libm_exp_ex+0x2f5>
  405f70:	66 0f 57 db          	xorpd  %xmm3,%xmm3
  405f74:	66 0f 28 25 44 e6 00 	movapd 0xe644(%rip),%xmm4        # 4145c0 <ALLONES>
  405f7b:	00 
  405f7c:	ba 02 fc ff ff       	mov    $0xfffffc02,%edx
  405f81:	29 c2                	sub    %eax,%edx
  405f83:	66 0f 6e ea          	movd   %edx,%xmm5
  405f87:	66 0f f3 e5          	psllq  %xmm5,%xmm4
  405f8b:	89 c1                	mov    %eax,%ecx
  405f8d:	d1 f8                	sar    %eax
  405f8f:	66 0f c4 d8 03       	pinsrw $0x3,%eax,%xmm3
  405f94:	66 0f 28 35 34 e6 00 	movapd 0xe634(%rip),%xmm6        # 4145d0 <ebias>
  405f9b:	00 
  405f9c:	66 0f 73 f3 04       	psllq  $0x4,%xmm3
  405fa1:	66 0f fa d3          	psubd  %xmm3,%xmm2
  405fa5:	f2 0f 59 c2          	mulsd  %xmm2,%xmm0
  405fa9:	83 fa 34             	cmp    $0x34,%edx
  405fac:	0f 8f be 00 00 00    	jg     406070 <__libm_exp_ex+0x220>
  405fb2:	66 0f 54 e2          	andpd  %xmm2,%xmm4
  405fb6:	66 0f fe de          	paddd  %xmm6,%xmm3
  405fba:	f2 0f 5c d4          	subsd  %xmm4,%xmm2
  405fbe:	f2 0f 58 c2          	addsd  %xmm2,%xmm0
  405fc2:	81 f9 ff 03 00 00    	cmp    $0x3ff,%ecx
  405fc8:	0f 8d 82 00 00 00    	jge    406050 <__libm_exp_ex+0x200>
  405fce:	66 0f c5 c8 03       	pextrw $0x3,%xmm0,%ecx
  405fd3:	81 e1 00 80 00 00    	and    $0x8000,%ecx
  405fd9:	09 ca                	or     %ecx,%edx
  405fdb:	83 fa 00             	cmp    $0x0,%edx
  405fde:	74 63                	je     406043 <__libm_exp_ex+0x1f3>
  405fe0:	66 0f 28 f0          	movapd %xmm0,%xmm6
  405fe4:	f2 0f 58 c4          	addsd  %xmm4,%xmm0
  405fe8:	f2 0f 59 c3          	mulsd  %xmm3,%xmm0
  405fec:	66 0f c5 c8 03       	pextrw $0x3,%xmm0,%ecx
  405ff1:	81 e1 f0 7f 00 00    	and    $0x7ff0,%ecx
  405ff7:	83 f9 00             	cmp    $0x0,%ecx
  405ffa:	74 05                	je     406001 <__libm_exp_ex+0x1b1>
  405ffc:	e9 44 01 00 00       	jmpq   406145 <__libm_exp_ex+0x2f5>
  406001:	f2 0f 59 f3          	mulsd  %xmm3,%xmm6
  406005:	f2 0f 59 e3          	mulsd  %xmm3,%xmm4
  406009:	f2 0f 10 c6          	movsd  %xmm6,%xmm0
  40600d:	66 0f ef f4          	pxor   %xmm4,%xmm6
  406011:	66 0f 72 e6 1f       	psrad  $0x1f,%xmm6
  406016:	66 0f 70 f6 55       	pshufd $0x55,%xmm6,%xmm6
  40601b:	66 0f 73 f0 01       	psllq  $0x1,%xmm0
  406020:	66 0f 73 d0 01       	psrlq  $0x1,%xmm0
  406025:	66 0f ef c6          	pxor   %xmm6,%xmm0
  406029:	66 0f 73 d6 3f       	psrlq  $0x3f,%xmm6
  40602e:	66 0f d4 c6          	paddq  %xmm6,%xmm0
  406032:	66 0f d4 c4          	paddq  %xmm4,%xmm0
  406036:	c7 44 24 04 0f 00 00 	movl   $0xf,0x4(%rsp)
  40603d:	00 
  40603e:	e9 e3 00 00 00       	jmpq   406126 <__libm_exp_ex+0x2d6>
  406043:	f2 0f 58 c4          	addsd  %xmm4,%xmm0
  406047:	f2 0f 59 c3          	mulsd  %xmm3,%xmm0
  40604b:	e9 f5 00 00 00       	jmpq   406145 <__libm_exp_ex+0x2f5>
  406050:	f2 0f 58 c4          	addsd  %xmm4,%xmm0
  406054:	f2 0f 59 c3          	mulsd  %xmm3,%xmm0
  406058:	66 0f c5 c8 03       	pextrw $0x3,%xmm0,%ecx
  40605d:	81 e1 f0 7f 00 00    	and    $0x7ff0,%ecx
  406063:	81 f9 f0 7f 00 00    	cmp    $0x7ff0,%ecx
  406069:	73 3c                	jae    4060a7 <__libm_exp_ex+0x257>
  40606b:	e9 d5 00 00 00       	jmpq   406145 <__libm_exp_ex+0x2f5>
  406070:	66 0f fe de          	paddd  %xmm6,%xmm3
  406074:	66 0f 58 c2          	addpd  %xmm2,%xmm0
  406078:	f2 0f 59 c3          	mulsd  %xmm3,%xmm0
  40607c:	c7 44 24 04 0f 00 00 	movl   $0xf,0x4(%rsp)
  406083:	00 
  406084:	e9 9d 00 00 00       	jmpq   406126 <__libm_exp_ex+0x2d6>
  406089:	3d 00 00 f0 7f       	cmp    $0x7ff00000,%eax
  40608e:	73 37                	jae    4060c7 <__libm_exp_ex+0x277>
  406090:	8b 44 24 0c          	mov    0xc(%rsp),%eax
  406094:	3d 00 00 00 80       	cmp    $0x80000000,%eax
  406099:	73 16                	jae    4060b1 <__libm_exp_ex+0x261>
  40609b:	f2 0f 10 05 3d e5 00 	movsd  0xe53d(%rip),%xmm0        # 4145e0 <XMAX>
  4060a2:	00 
  4060a3:	f2 0f 59 c0          	mulsd  %xmm0,%xmm0
  4060a7:	c7 44 24 04 0e 00 00 	movl   $0xe,0x4(%rsp)
  4060ae:	00 
  4060af:	eb 75                	jmp    406126 <__libm_exp_ex+0x2d6>
  4060b1:	f2 0f 10 05 2f e5 00 	movsd  0xe52f(%rip),%xmm0        # 4145e8 <XMIN>
  4060b8:	00 
  4060b9:	f2 0f 59 c0          	mulsd  %xmm0,%xmm0
  4060bd:	c7 44 24 04 0f 00 00 	movl   $0xf,0x4(%rsp)
  4060c4:	00 
  4060c5:	eb 5f                	jmp    406126 <__libm_exp_ex+0x2d6>
  4060c7:	8b 54 24 08          	mov    0x8(%rsp),%edx
  4060cb:	3d 00 00 f0 7f       	cmp    $0x7ff00000,%eax
  4060d0:	77 24                	ja     4060f6 <__libm_exp_ex+0x2a6>
  4060d2:	83 fa 00             	cmp    $0x0,%edx
  4060d5:	75 1f                	jne    4060f6 <__libm_exp_ex+0x2a6>
  4060d7:	8b 44 24 0c          	mov    0xc(%rsp),%eax
  4060db:	3d 00 00 f0 7f       	cmp    $0x7ff00000,%eax
  4060e0:	75 0a                	jne    4060ec <__libm_exp_ex+0x29c>
  4060e2:	f2 0f 10 05 06 e5 00 	movsd  0xe506(%rip),%xmm0        # 4145f0 <INF>
  4060e9:	00 
  4060ea:	eb 59                	jmp    406145 <__libm_exp_ex+0x2f5>
  4060ec:	f2 0f 10 05 04 e5 00 	movsd  0xe504(%rip),%xmm0        # 4145f8 <ZERO>
  4060f3:	00 
  4060f4:	eb 4f                	jmp    406145 <__libm_exp_ex+0x2f5>
  4060f6:	f2 0f 10 44 24 08    	movsd  0x8(%rsp),%xmm0
  4060fc:	f2 0f 58 c0          	addsd  %xmm0,%xmm0
  406100:	eb 43                	jmp    406145 <__libm_exp_ex+0x2f5>
  406102:	8b 44 24 0c          	mov    0xc(%rsp),%eax
  406106:	25 ff ff ff 7f       	and    $0x7fffffff,%eax
  40610b:	3d 00 00 90 40       	cmp    $0x40900000,%eax
  406110:	0f 83 73 ff ff ff    	jae    406089 <__libm_exp_ex+0x239>
  406116:	f2 0f 10 44 24 08    	movsd  0x8(%rsp),%xmm0
  40611c:	f2 0f 58 05 dc e4 00 	addsd  0xe4dc(%rip),%xmm0        # 414600 <ONE_val>
  406123:	00 
  406124:	eb 1f                	jmp    406145 <__libm_exp_ex+0x2f5>
  406126:	f2 0f 11 44 24 10    	movsd  %xmm0,0x10(%rsp)
  40612c:	f2 0f 10 4c 24 08    	movsd  0x8(%rsp),%xmm1
  406132:	f2 0f 10 54 24 08    	movsd  0x8(%rsp),%xmm2
  406138:	8b 4c 24 04          	mov    0x4(%rsp),%ecx
  40613c:	66 0f 6e d9          	movd   %ecx,%xmm3
  406140:	e8 5b d5 ff ff       	callq  4036a0 <__libm_error_support_wrapper_x64>
  406145:	f2 0f 11 44 24 10    	movsd  %xmm0,0x10(%rsp)
  40614b:	48 83 c4 18          	add    $0x18,%rsp
  40614f:	c3                   	retq   

0000000000406150 <__libm_exp_e7>:
  406150:	f3 0f 1e fa          	endbr64 
  406154:	48 83 ec 18          	sub    $0x18,%rsp
  406158:	f2 0f 11 44 24 08    	movsd  %xmm0,0x8(%rsp)
  40615e:	66 0f 14 c0          	unpcklpd %xmm0,%xmm0
  406162:	66 0f 28 0d a6 e4 00 	movapd 0xe4a6(%rip),%xmm1        # 414610 <cv>
  406169:	00 
  40616a:	66 0f 28 35 fe e4 00 	movapd 0xe4fe(%rip),%xmm6        # 414670 <Shifter>
  406171:	00 
  406172:	66 0f 28 15 a6 e4 00 	movapd 0xe4a6(%rip),%xmm2        # 414620 <cv+0x10>
  406179:	00 
  40617a:	66 0f 28 1d ae e4 00 	movapd 0xe4ae(%rip),%xmm3        # 414630 <cv+0x20>
  406181:	00 
  406182:	66 0f c5 c0 03       	pextrw $0x3,%xmm0,%eax
  406187:	25 ff 7f 00 00       	and    $0x7fff,%eax
  40618c:	ba 8f 40 00 00       	mov    $0x408f,%edx
  406191:	29 c2                	sub    %eax,%edx
  406193:	2d 90 3c 00 00       	sub    $0x3c90,%eax
  406198:	09 c2                	or     %eax,%edx
  40619a:	81 fa 00 00 00 80    	cmp    $0x80000000,%edx
  4061a0:	0f 83 5c 02 00 00    	jae    406402 <__libm_exp_e7+0x2b2>
  4061a6:	66 0f 59 c8          	mulpd  %xmm0,%xmm1
  4061aa:	66 0f 58 ce          	addpd  %xmm6,%xmm1
  4061ae:	66 0f 28 f9          	movapd %xmm1,%xmm7
  4061b2:	66 0f 5c ce          	subpd  %xmm6,%xmm1
  4061b6:	66 0f 59 d1          	mulpd  %xmm1,%xmm2
  4061ba:	66 0f 28 25 8e e4 00 	movapd 0xe48e(%rip),%xmm4        # 414650 <cv+0x40>
  4061c1:	00 
  4061c2:	66 0f 59 d9          	mulpd  %xmm1,%xmm3
  4061c6:	66 0f 28 2d 92 e4 00 	movapd 0xe492(%rip),%xmm5        # 414660 <cv+0x50>
  4061cd:	00 
  4061ce:	66 0f 5c c2          	subpd  %xmm2,%xmm0
  4061d2:	66 0f 7e f8          	movd   %xmm7,%eax
  4061d6:	89 c1                	mov    %eax,%ecx
  4061d8:	83 e1 3f             	and    $0x3f,%ecx
  4061db:	c1 e1 04             	shl    $0x4,%ecx
  4061de:	c1 f8 06             	sar    $0x6,%eax
  4061e1:	89 c2                	mov    %eax,%edx
  4061e3:	66 0f 6f 35 95 e4 00 	movdqa 0xe495(%rip),%xmm6        # 414680 <mmask>
  4061ea:	00 
  4061eb:	66 0f db fe          	pand   %xmm6,%xmm7
  4061ef:	66 0f 6f 35 99 e4 00 	movdqa 0xe499(%rip),%xmm6        # 414690 <bias>
  4061f6:	00 
  4061f7:	66 0f d4 fe          	paddq  %xmm6,%xmm7
  4061fb:	66 0f 73 f7 2e       	psllq  $0x2e,%xmm7
  406200:	66 0f 5c c3          	subpd  %xmm3,%xmm0
  406204:	4c 8d 05 95 e4 00 00 	lea    0xe495(%rip),%r8        # 4146a0 <Tbl_addr>
  40620b:	66 42 0f 28 14 01    	movapd (%rcx,%r8,1),%xmm2
  406211:	66 0f 59 e0          	mulpd  %xmm0,%xmm4
  406215:	66 0f 28 f0          	movapd %xmm0,%xmm6
  406219:	66 0f 28 c8          	movapd %xmm0,%xmm1
  40621d:	66 0f 59 f6          	mulpd  %xmm6,%xmm6
  406221:	66 0f 59 c6          	mulpd  %xmm6,%xmm0
  406225:	66 0f 58 ec          	addpd  %xmm4,%xmm5
  406229:	f2 0f 59 c6          	mulsd  %xmm6,%xmm0
  40622d:	66 0f 59 35 0b e4 00 	mulpd  0xe40b(%rip),%xmm6        # 414640 <cv+0x30>
  406234:	00 
  406235:	f2 0f 58 ca          	addsd  %xmm2,%xmm1
  406239:	66 0f 15 d2          	unpckhpd %xmm2,%xmm2
  40623d:	66 0f 59 c5          	mulpd  %xmm5,%xmm0
  406241:	f2 0f 58 c8          	addsd  %xmm0,%xmm1
  406245:	66 0f 56 d7          	orpd   %xmm7,%xmm2
  406249:	66 0f 15 c0          	unpckhpd %xmm0,%xmm0
  40624d:	f2 0f 58 c1          	addsd  %xmm1,%xmm0
  406251:	f2 0f 58 c6          	addsd  %xmm6,%xmm0
  406255:	81 c2 7e 03 00 00    	add    $0x37e,%edx
  40625b:	81 fa 7c 07 00 00    	cmp    $0x77c,%edx
  406261:	77 0d                	ja     406270 <__libm_exp_e7+0x120>
  406263:	f2 0f 59 c2          	mulsd  %xmm2,%xmm0
  406267:	f2 0f 58 c2          	addsd  %xmm2,%xmm0
  40626b:	e9 d5 01 00 00       	jmpq   406445 <__libm_exp_e7+0x2f5>
  406270:	66 0f 57 db          	xorpd  %xmm3,%xmm3
  406274:	66 0f 28 25 24 e8 00 	movapd 0xe824(%rip),%xmm4        # 414aa0 <ALLONES>
  40627b:	00 
  40627c:	ba 02 fc ff ff       	mov    $0xfffffc02,%edx
  406281:	29 c2                	sub    %eax,%edx
  406283:	66 0f 6e ea          	movd   %edx,%xmm5
  406287:	66 0f f3 e5          	psllq  %xmm5,%xmm4
  40628b:	89 c1                	mov    %eax,%ecx
  40628d:	d1 f8                	sar    %eax
  40628f:	66 0f c4 d8 03       	pinsrw $0x3,%eax,%xmm3
  406294:	66 0f 28 35 14 e8 00 	movapd 0xe814(%rip),%xmm6        # 414ab0 <ebias>
  40629b:	00 
  40629c:	66 0f 73 f3 04       	psllq  $0x4,%xmm3
  4062a1:	66 0f fa d3          	psubd  %xmm3,%xmm2
  4062a5:	f2 0f 59 c2          	mulsd  %xmm2,%xmm0
  4062a9:	83 fa 34             	cmp    $0x34,%edx
  4062ac:	0f 8f be 00 00 00    	jg     406370 <__libm_exp_e7+0x220>
  4062b2:	66 0f 54 e2          	andpd  %xmm2,%xmm4
  4062b6:	66 0f fe de          	paddd  %xmm6,%xmm3
  4062ba:	f2 0f 5c d4          	subsd  %xmm4,%xmm2
  4062be:	f2 0f 58 c2          	addsd  %xmm2,%xmm0
  4062c2:	81 f9 ff 03 00 00    	cmp    $0x3ff,%ecx
  4062c8:	0f 8d 82 00 00 00    	jge    406350 <__libm_exp_e7+0x200>
  4062ce:	66 0f c5 c8 03       	pextrw $0x3,%xmm0,%ecx
  4062d3:	81 e1 00 80 00 00    	and    $0x8000,%ecx
  4062d9:	09 ca                	or     %ecx,%edx
  4062db:	83 fa 00             	cmp    $0x0,%edx
  4062de:	74 63                	je     406343 <__libm_exp_e7+0x1f3>
  4062e0:	66 0f 28 f0          	movapd %xmm0,%xmm6
  4062e4:	f2 0f 58 c4          	addsd  %xmm4,%xmm0
  4062e8:	f2 0f 59 c3          	mulsd  %xmm3,%xmm0
  4062ec:	66 0f c5 c8 03       	pextrw $0x3,%xmm0,%ecx
  4062f1:	81 e1 f0 7f 00 00    	and    $0x7ff0,%ecx
  4062f7:	83 f9 00             	cmp    $0x0,%ecx
  4062fa:	74 05                	je     406301 <__libm_exp_e7+0x1b1>
  4062fc:	e9 44 01 00 00       	jmpq   406445 <__libm_exp_e7+0x2f5>
  406301:	f2 0f 59 f3          	mulsd  %xmm3,%xmm6
  406305:	f2 0f 59 e3          	mulsd  %xmm3,%xmm4
  406309:	f3 0f 7e c6          	movq   %xmm6,%xmm0
  40630d:	66 0f ef f4          	pxor   %xmm4,%xmm6
  406311:	66 0f 72 e6 1f       	psrad  $0x1f,%xmm6
  406316:	66 0f 70 f6 55       	pshufd $0x55,%xmm6,%xmm6
  40631b:	66 0f 73 f0 01       	psllq  $0x1,%xmm0
  406320:	66 0f 73 d0 01       	psrlq  $0x1,%xmm0
  406325:	66 0f ef c6          	pxor   %xmm6,%xmm0
  406329:	66 0f 73 d6 3f       	psrlq  $0x3f,%xmm6
  40632e:	66 0f d4 c6          	paddq  %xmm6,%xmm0
  406332:	66 0f d4 c4          	paddq  %xmm4,%xmm0
  406336:	c7 44 24 04 0f 00 00 	movl   $0xf,0x4(%rsp)
  40633d:	00 
  40633e:	e9 e3 00 00 00       	jmpq   406426 <__libm_exp_e7+0x2d6>
  406343:	f2 0f 58 c4          	addsd  %xmm4,%xmm0
  406347:	f2 0f 59 c3          	mulsd  %xmm3,%xmm0
  40634b:	e9 f5 00 00 00       	jmpq   406445 <__libm_exp_e7+0x2f5>
  406350:	f2 0f 58 c4          	addsd  %xmm4,%xmm0
  406354:	f2 0f 59 c3          	mulsd  %xmm3,%xmm0
  406358:	66 0f c5 c8 03       	pextrw $0x3,%xmm0,%ecx
  40635d:	81 e1 f0 7f 00 00    	and    $0x7ff0,%ecx
  406363:	81 f9 f0 7f 00 00    	cmp    $0x7ff0,%ecx
  406369:	73 3c                	jae    4063a7 <__libm_exp_e7+0x257>
  40636b:	e9 d5 00 00 00       	jmpq   406445 <__libm_exp_e7+0x2f5>
  406370:	66 0f fe de          	paddd  %xmm6,%xmm3
  406374:	66 0f 58 c2          	addpd  %xmm2,%xmm0
  406378:	f2 0f 59 c3          	mulsd  %xmm3,%xmm0
  40637c:	c7 44 24 04 0f 00 00 	movl   $0xf,0x4(%rsp)
  406383:	00 
  406384:	e9 9d 00 00 00       	jmpq   406426 <__libm_exp_e7+0x2d6>
  406389:	3d 00 00 f0 7f       	cmp    $0x7ff00000,%eax
  40638e:	73 37                	jae    4063c7 <__libm_exp_e7+0x277>
  406390:	8b 44 24 0c          	mov    0xc(%rsp),%eax
  406394:	3d 00 00 00 80       	cmp    $0x80000000,%eax
  406399:	73 16                	jae    4063b1 <__libm_exp_e7+0x261>
  40639b:	f2 0f 10 05 1d e7 00 	movsd  0xe71d(%rip),%xmm0        # 414ac0 <XMAX>
  4063a2:	00 
  4063a3:	f2 0f 59 c0          	mulsd  %xmm0,%xmm0
  4063a7:	c7 44 24 04 0e 00 00 	movl   $0xe,0x4(%rsp)
  4063ae:	00 
  4063af:	eb 75                	jmp    406426 <__libm_exp_e7+0x2d6>
  4063b1:	f2 0f 10 05 0f e7 00 	movsd  0xe70f(%rip),%xmm0        # 414ac8 <XMIN>
  4063b8:	00 
  4063b9:	f2 0f 59 c0          	mulsd  %xmm0,%xmm0
  4063bd:	c7 44 24 04 0f 00 00 	movl   $0xf,0x4(%rsp)
  4063c4:	00 
  4063c5:	eb 5f                	jmp    406426 <__libm_exp_e7+0x2d6>
  4063c7:	8b 54 24 08          	mov    0x8(%rsp),%edx
  4063cb:	3d 00 00 f0 7f       	cmp    $0x7ff00000,%eax
  4063d0:	77 24                	ja     4063f6 <__libm_exp_e7+0x2a6>
  4063d2:	83 fa 00             	cmp    $0x0,%edx
  4063d5:	75 1f                	jne    4063f6 <__libm_exp_e7+0x2a6>
  4063d7:	8b 44 24 0c          	mov    0xc(%rsp),%eax
  4063db:	3d 00 00 f0 7f       	cmp    $0x7ff00000,%eax
  4063e0:	75 0a                	jne    4063ec <__libm_exp_e7+0x29c>
  4063e2:	f2 0f 10 05 e6 e6 00 	movsd  0xe6e6(%rip),%xmm0        # 414ad0 <INF>
  4063e9:	00 
  4063ea:	eb 59                	jmp    406445 <__libm_exp_e7+0x2f5>
  4063ec:	f2 0f 10 05 e4 e6 00 	movsd  0xe6e4(%rip),%xmm0        # 414ad8 <ZERO>
  4063f3:	00 
  4063f4:	eb 4f                	jmp    406445 <__libm_exp_e7+0x2f5>
  4063f6:	f2 0f 10 44 24 08    	movsd  0x8(%rsp),%xmm0
  4063fc:	f2 0f 58 c0          	addsd  %xmm0,%xmm0
  406400:	eb 43                	jmp    406445 <__libm_exp_e7+0x2f5>
  406402:	8b 44 24 0c          	mov    0xc(%rsp),%eax
  406406:	25 ff ff ff 7f       	and    $0x7fffffff,%eax
  40640b:	3d 00 00 90 40       	cmp    $0x40900000,%eax
  406410:	0f 83 73 ff ff ff    	jae    406389 <__libm_exp_e7+0x239>
  406416:	f2 0f 10 44 24 08    	movsd  0x8(%rsp),%xmm0
  40641c:	f2 0f 58 05 bc e6 00 	addsd  0xe6bc(%rip),%xmm0        # 414ae0 <ONE_val>
  406423:	00 
  406424:	eb 1f                	jmp    406445 <__libm_exp_e7+0x2f5>
  406426:	66 0f d6 44 24 10    	movq   %xmm0,0x10(%rsp)
  40642c:	f2 0f 10 4c 24 08    	movsd  0x8(%rsp),%xmm1
  406432:	f2 0f 10 54 24 08    	movsd  0x8(%rsp),%xmm2
  406438:	8b 4c 24 04          	mov    0x4(%rsp),%ecx
  40643c:	66 0f 6e d9          	movd   %ecx,%xmm3
  406440:	e8 5b d2 ff ff       	callq  4036a0 <__libm_error_support_wrapper_x64>
  406445:	f2 0f 11 44 24 10    	movsd  %xmm0,0x10(%rsp)
  40644b:	48 83 c4 18          	add    $0x18,%rsp
  40644f:	c3                   	retq   

0000000000406450 <__libm_expf_ex>:
  406450:	f3 0f 1e fa          	endbr64 
  406454:	48 83 ec 18          	sub    $0x18,%rsp
  406458:	f3 0f 11 44 24 10    	movss  %xmm0,0x10(%rsp)
  40645e:	f3 0f 10 0d 8a e6 00 	movss  0xe68a(%rip),%xmm1        # 414af0 <LOW_FLOAT_MASK>
  406465:	00 
  406466:	f3 0f 7e 1d 8a e6 00 	movq   0xe68a(%rip),%xmm3        # 414af8 <log2e>
  40646d:	00 
  40646e:	48 b8 00 00 00 00 00 	movabs $0x4338000000000000,%rax
  406475:	00 38 43 
  406478:	66 48 0f 6e e0       	movq   %rax,%xmm4
  40647d:	0f 54 c8             	andps  %xmm0,%xmm1
  406480:	66 0f 7e c1          	movd   %xmm0,%ecx
  406484:	0f 5a c9             	cvtps2pd %xmm1,%xmm1
  406487:	81 e1 ff ff ff 7f    	and    $0x7fffffff,%ecx
  40648d:	81 e9 00 00 80 31    	sub    $0x31800000,%ecx
  406493:	81 f9 6b 49 2d 11    	cmp    $0x112d496b,%ecx
  406499:	73 7f                	jae    40651a <__libm_expf_ex+0xca>
  40649b:	f3 0f 7e 35 5d e6 00 	movq   0xe65d(%rip),%xmm6        # 414b00 <c2>
  4064a2:	00 
  4064a3:	f2 0f 59 d9          	mulsd  %xmm1,%xmm3
  4064a7:	f3 0f 7e d4          	movq   %xmm4,%xmm2
  4064ab:	f2 0f 58 e3          	addsd  %xmm3,%xmm4
  4064af:	f3 0f 7e 2d 51 e6 00 	movq   0xe651(%rip),%xmm5        # 414b08 <c2+0x8>
  4064b6:	00 
  4064b7:	66 0f 7e e0          	movd   %xmm4,%eax
  4064bb:	f2 0f 5c d4          	subsd  %xmm4,%xmm2
  4064bf:	48 ba 00 00 00 00 00 	movabs $0x3ff0000000000000,%rdx
  4064c6:	00 f0 3f 
  4064c9:	66 48 0f 6e ca       	movq   %rdx,%xmm1
  4064ce:	4c 8d 1d 3b e6 00 00 	lea    0xe63b(%rip),%r11        # 414b10 <Th>
  4064d5:	66 0f 57 ff          	xorpd  %xmm7,%xmm7
  4064d9:	89 c1                	mov    %eax,%ecx
  4064db:	25 ff 00 00 00       	and    $0xff,%eax
  4064e0:	f3 41 0f 7e 04 c3    	movq   (%r11,%rax,8),%xmm0
  4064e6:	f2 0f 58 da          	addsd  %xmm2,%xmm3
  4064ea:	c1 f9 04             	sar    $0x4,%ecx
  4064ed:	83 e1 f0             	and    $0xfffffff0,%ecx
  4064f0:	66 0f c4 f9 03       	pinsrw $0x3,%ecx,%xmm7
  4064f5:	f2 0f 59 f3          	mulsd  %xmm3,%xmm6
  4064f9:	f2 0f 59 eb          	mulsd  %xmm3,%xmm5
  4064fd:	f2 0f 59 f3          	mulsd  %xmm3,%xmm6
  406501:	f2 0f 58 e9          	addsd  %xmm1,%xmm5
  406505:	66 0f fe c7          	paddd  %xmm7,%xmm0
  406509:	f2 0f 58 ee          	addsd  %xmm6,%xmm5
  40650d:	f2 0f 59 c5          	mulsd  %xmm5,%xmm0
  406511:	66 0f 5a c0          	cvtpd2ps %xmm0,%xmm0
  406515:	e9 31 01 00 00       	jmpq   40664b <__libm_expf_ex+0x1fb>
  40651a:	81 c1 00 00 80 31    	add    $0x31800000,%ecx
  406520:	81 f9 00 00 80 31    	cmp    $0x31800000,%ecx
  406526:	0f 82 de 00 00 00    	jb     40660a <__libm_expf_ex+0x1ba>
  40652c:	81 f9 00 00 00 43    	cmp    $0x43000000,%ecx
  406532:	0f 83 90 00 00 00    	jae    4065c8 <__libm_expf_ex+0x178>
  406538:	f3 0f 7e 35 c0 e5 00 	movq   0xe5c0(%rip),%xmm6        # 414b00 <c2>
  40653f:	00 
  406540:	f2 0f 59 d9          	mulsd  %xmm1,%xmm3
  406544:	f3 0f 7e d4          	movq   %xmm4,%xmm2
  406548:	66 0f 57 c9          	xorpd  %xmm1,%xmm1
  40654c:	f2 0f 58 e3          	addsd  %xmm3,%xmm4
  406550:	f3 0f 7e 2d b0 e5 00 	movq   0xe5b0(%rip),%xmm5        # 414b08 <c2+0x8>
  406557:	00 
  406558:	66 0f 7e e0          	movd   %xmm4,%eax
  40655c:	f2 0f 5c d4          	subsd  %xmm4,%xmm2
  406560:	ba f0 3f 00 00       	mov    $0x3ff0,%edx
  406565:	66 0f c4 ca 03       	pinsrw $0x3,%edx,%xmm1
  40656a:	4c 8d 1d 9f e5 00 00 	lea    0xe59f(%rip),%r11        # 414b10 <Th>
  406571:	66 0f 57 ff          	xorpd  %xmm7,%xmm7
  406575:	89 c1                	mov    %eax,%ecx
  406577:	25 ff 00 00 00       	and    $0xff,%eax
  40657c:	f3 41 0f 7e 04 c3    	movq   (%r11,%rax,8),%xmm0
  406582:	f2 0f 58 da          	addsd  %xmm2,%xmm3
  406586:	c1 f9 04             	sar    $0x4,%ecx
  406589:	83 e1 f0             	and    $0xfffffff0,%ecx
  40658c:	66 0f c4 f9 03       	pinsrw $0x3,%ecx,%xmm7
  406591:	f2 0f 59 f3          	mulsd  %xmm3,%xmm6
  406595:	f2 0f 59 eb          	mulsd  %xmm3,%xmm5
  406599:	f2 0f 59 f3          	mulsd  %xmm3,%xmm6
  40659d:	f2 0f 58 e9          	addsd  %xmm1,%xmm5
  4065a1:	66 0f fe c7          	paddd  %xmm7,%xmm0
  4065a5:	f2 0f 58 ee          	addsd  %xmm6,%xmm5
  4065a9:	f2 0f 59 c5          	mulsd  %xmm5,%xmm0
  4065ad:	66 0f 5a c0          	cvtpd2ps %xmm0,%xmm0
  4065b1:	66 0f 7e c0          	movd   %xmm0,%eax
  4065b5:	3d 00 00 80 00       	cmp    $0x800000,%eax
  4065ba:	72 2d                	jb     4065e9 <__libm_expf_ex+0x199>
  4065bc:	3d 00 00 80 7f       	cmp    $0x7f800000,%eax
  4065c1:	74 30                	je     4065f3 <__libm_expf_ex+0x1a3>
  4065c3:	e9 83 00 00 00       	jmpq   40664b <__libm_expf_ex+0x1fb>
  4065c8:	66 0f 7e c2          	movd   %xmm0,%edx
  4065cc:	81 f9 00 00 80 7f    	cmp    $0x7f800000,%ecx
  4065d2:	73 45                	jae    406619 <__libm_expf_ex+0x1c9>
  4065d4:	f7 c2 00 00 00 80    	test   $0x80000000,%edx
  4065da:	74 17                	je     4065f3 <__libm_expf_ex+0x1a3>
  4065dc:	b8 00 00 80 00       	mov    $0x800000,%eax
  4065e1:	66 0f 6e c0          	movd   %eax,%xmm0
  4065e5:	f3 0f 59 c0          	mulss  %xmm0,%xmm0
  4065e9:	c7 44 24 0c 11 00 00 	movl   $0x11,0xc(%rsp)
  4065f0:	00 
  4065f1:	eb 39                	jmp    40662c <__libm_expf_ex+0x1dc>
  4065f3:	b8 00 00 00 7f       	mov    $0x7f000000,%eax
  4065f8:	66 0f 6e c0          	movd   %eax,%xmm0
  4065fc:	f3 0f 59 c0          	mulss  %xmm0,%xmm0
  406600:	c7 44 24 0c 10 00 00 	movl   $0x10,0xc(%rsp)
  406607:	00 
  406608:	eb 22                	jmp    40662c <__libm_expf_ex+0x1dc>
  40660a:	b8 00 00 80 3f       	mov    $0x3f800000,%eax
  40660f:	66 0f 6e c8          	movd   %eax,%xmm1
  406613:	f3 0f 58 c1          	addss  %xmm1,%xmm0
  406617:	eb 32                	jmp    40664b <__libm_expf_ex+0x1fb>
  406619:	81 fa 00 00 80 ff    	cmp    $0xff800000,%edx
  40661f:	74 06                	je     406627 <__libm_expf_ex+0x1d7>
  406621:	f3 0f 58 c0          	addss  %xmm0,%xmm0
  406625:	eb 24                	jmp    40664b <__libm_expf_ex+0x1fb>
  406627:	0f 57 c0             	xorps  %xmm0,%xmm0
  40662a:	eb 1f                	jmp    40664b <__libm_expf_ex+0x1fb>
  40662c:	f3 0f 11 44 24 14    	movss  %xmm0,0x14(%rsp)
  406632:	f3 0f 10 4c 24 10    	movss  0x10(%rsp),%xmm1
  406638:	f3 0f 10 54 24 10    	movss  0x10(%rsp),%xmm2
  40663e:	8b 4c 24 0c          	mov    0xc(%rsp),%ecx
  406642:	66 0f 6e d9          	movd   %ecx,%xmm3
  406646:	e8 15 d0 ff ff       	callq  403660 <__libm_error_support_wrapper_x64f>
  40664b:	f3 0f 11 44 24 14    	movss  %xmm0,0x14(%rsp)
  406651:	48 83 c4 18          	add    $0x18,%rsp
  406655:	c3                   	retq   
  406656:	66 2e 0f 1f 84 00 00 	nopw   %cs:0x0(%rax,%rax,1)
  40665d:	00 00 00 

0000000000406660 <__libm_expf_e7>:
  406660:	f3 0f 1e fa          	endbr64 
  406664:	48 83 ec 18          	sub    $0x18,%rsp
  406668:	f3 0f 11 44 24 10    	movss  %xmm0,0x10(%rsp)
  40666e:	f3 0f 10 0d 9a ec 00 	movss  0xec9a(%rip),%xmm1        # 415310 <LOW_FLOAT_MASK>
  406675:	00 
  406676:	f3 0f 7e 1d 9a ec 00 	movq   0xec9a(%rip),%xmm3        # 415318 <log2e>
  40667d:	00 
  40667e:	48 b8 00 00 00 00 00 	movabs $0x4338000000000000,%rax
  406685:	00 38 43 
  406688:	66 48 0f 6e e0       	movq   %rax,%xmm4
  40668d:	0f 54 c8             	andps  %xmm0,%xmm1
  406690:	66 0f 7e c1          	movd   %xmm0,%ecx
  406694:	0f 5a c9             	cvtps2pd %xmm1,%xmm1
  406697:	81 e1 ff ff ff 7f    	and    $0x7fffffff,%ecx
  40669d:	81 e9 00 00 80 31    	sub    $0x31800000,%ecx
  4066a3:	81 f9 6b 49 2d 11    	cmp    $0x112d496b,%ecx
  4066a9:	73 7f                	jae    40672a <__libm_expf_e7+0xca>
  4066ab:	f3 0f 7e 35 6d ec 00 	movq   0xec6d(%rip),%xmm6        # 415320 <c2>
  4066b2:	00 
  4066b3:	f3 0f 7e d4          	movq   %xmm4,%xmm2
  4066b7:	f3 0f 7e 2d 69 ec 00 	movq   0xec69(%rip),%xmm5        # 415328 <c2+0x8>
  4066be:	00 
  4066bf:	66 0f 57 ff          	xorpd  %xmm7,%xmm7
  4066c3:	f2 0f 59 d9          	mulsd  %xmm1,%xmm3
  4066c7:	f2 0f 58 e3          	addsd  %xmm3,%xmm4
  4066cb:	66 0f 7e e0          	movd   %xmm4,%eax
  4066cf:	f2 0f 5c d4          	subsd  %xmm4,%xmm2
  4066d3:	f2 0f 58 da          	addsd  %xmm2,%xmm3
  4066d7:	48 ba 00 00 00 00 00 	movabs $0x3ff0000000000000,%rdx
  4066de:	00 f0 3f 
  4066e1:	66 48 0f 6e ca       	movq   %rdx,%xmm1
  4066e6:	4c 8d 1d 43 ec 00 00 	lea    0xec43(%rip),%r11        # 415330 <Th>
  4066ed:	89 c1                	mov    %eax,%ecx
  4066ef:	25 ff 00 00 00       	and    $0xff,%eax
  4066f4:	f3 41 0f 7e 04 c3    	movq   (%r11,%rax,8),%xmm0
  4066fa:	c1 f9 04             	sar    $0x4,%ecx
  4066fd:	83 e1 f0             	and    $0xfffffff0,%ecx
  406700:	66 0f c4 f9 03       	pinsrw $0x3,%ecx,%xmm7
  406705:	f2 0f 59 f3          	mulsd  %xmm3,%xmm6
  406709:	f2 0f 59 eb          	mulsd  %xmm3,%xmm5
  40670d:	f2 0f 59 f3          	mulsd  %xmm3,%xmm6
  406711:	f2 0f 58 e9          	addsd  %xmm1,%xmm5
  406715:	66 0f fe c7          	paddd  %xmm7,%xmm0
  406719:	f2 0f 58 ee          	addsd  %xmm6,%xmm5
  40671d:	f2 0f 59 c5          	mulsd  %xmm5,%xmm0
  406721:	66 0f 5a c0          	cvtpd2ps %xmm0,%xmm0
  406725:	e9 31 01 00 00       	jmpq   40685b <__libm_expf_e7+0x1fb>
  40672a:	81 c1 00 00 80 31    	add    $0x31800000,%ecx
  406730:	81 f9 00 00 80 31    	cmp    $0x31800000,%ecx
  406736:	0f 82 de 00 00 00    	jb     40681a <__libm_expf_e7+0x1ba>
  40673c:	81 f9 00 00 00 43    	cmp    $0x43000000,%ecx
  406742:	0f 83 90 00 00 00    	jae    4067d8 <__libm_expf_e7+0x178>
  406748:	f3 0f 7e 35 d0 eb 00 	movq   0xebd0(%rip),%xmm6        # 415320 <c2>
  40674f:	00 
  406750:	f3 0f 7e d4          	movq   %xmm4,%xmm2
  406754:	f2 0f 59 d9          	mulsd  %xmm1,%xmm3
  406758:	f2 0f 58 e3          	addsd  %xmm3,%xmm4
  40675c:	66 0f 57 c9          	xorpd  %xmm1,%xmm1
  406760:	f3 0f 7e 2d c0 eb 00 	movq   0xebc0(%rip),%xmm5        # 415328 <c2+0x8>
  406767:	00 
  406768:	66 0f 7e e0          	movd   %xmm4,%eax
  40676c:	f2 0f 5c d4          	subsd  %xmm4,%xmm2
  406770:	ba f0 3f 00 00       	mov    $0x3ff0,%edx
  406775:	66 0f c4 ca 03       	pinsrw $0x3,%edx,%xmm1
  40677a:	4c 8d 1d af eb 00 00 	lea    0xebaf(%rip),%r11        # 415330 <Th>
  406781:	66 0f 57 ff          	xorpd  %xmm7,%xmm7
  406785:	89 c1                	mov    %eax,%ecx
  406787:	25 ff 00 00 00       	and    $0xff,%eax
  40678c:	f3 41 0f 7e 04 c3    	movq   (%r11,%rax,8),%xmm0
  406792:	f2 0f 58 da          	addsd  %xmm2,%xmm3
  406796:	c1 f9 04             	sar    $0x4,%ecx
  406799:	83 e1 f0             	and    $0xfffffff0,%ecx
  40679c:	66 0f c4 f9 03       	pinsrw $0x3,%ecx,%xmm7
  4067a1:	f2 0f 59 f3          	mulsd  %xmm3,%xmm6
  4067a5:	f2 0f 59 eb          	mulsd  %xmm3,%xmm5
  4067a9:	f2 0f 59 f3          	mulsd  %xmm3,%xmm6
  4067ad:	f2 0f 58 e9          	addsd  %xmm1,%xmm5
  4067b1:	66 0f fe c7          	paddd  %xmm7,%xmm0
  4067b5:	f2 0f 58 ee          	addsd  %xmm6,%xmm5
  4067b9:	f2 0f 59 c5          	mulsd  %xmm5,%xmm0
  4067bd:	66 0f 5a c0          	cvtpd2ps %xmm0,%xmm0
  4067c1:	66 0f 7e c0          	movd   %xmm0,%eax
  4067c5:	3d 00 00 80 00       	cmp    $0x800000,%eax
  4067ca:	72 2d                	jb     4067f9 <__libm_expf_e7+0x199>
  4067cc:	3d 00 00 80 7f       	cmp    $0x7f800000,%eax
  4067d1:	74 30                	je     406803 <__libm_expf_e7+0x1a3>
  4067d3:	e9 83 00 00 00       	jmpq   40685b <__libm_expf_e7+0x1fb>
  4067d8:	66 0f 7e c2          	movd   %xmm0,%edx
  4067dc:	81 f9 00 00 80 7f    	cmp    $0x7f800000,%ecx
  4067e2:	73 45                	jae    406829 <__libm_expf_e7+0x1c9>
  4067e4:	f7 c2 00 00 00 80    	test   $0x80000000,%edx
  4067ea:	74 17                	je     406803 <__libm_expf_e7+0x1a3>
  4067ec:	b8 00 00 80 00       	mov    $0x800000,%eax
  4067f1:	66 0f 6e c0          	movd   %eax,%xmm0
  4067f5:	f3 0f 59 c0          	mulss  %xmm0,%xmm0
  4067f9:	c7 44 24 0c 11 00 00 	movl   $0x11,0xc(%rsp)
  406800:	00 
  406801:	eb 39                	jmp    40683c <__libm_expf_e7+0x1dc>
  406803:	b8 00 00 00 7f       	mov    $0x7f000000,%eax
  406808:	66 0f 6e c0          	movd   %eax,%xmm0
  40680c:	f3 0f 59 c0          	mulss  %xmm0,%xmm0
  406810:	c7 44 24 0c 10 00 00 	movl   $0x10,0xc(%rsp)
  406817:	00 
  406818:	eb 22                	jmp    40683c <__libm_expf_e7+0x1dc>
  40681a:	b8 00 00 80 3f       	mov    $0x3f800000,%eax
  40681f:	66 0f 6e c8          	movd   %eax,%xmm1
  406823:	f3 0f 58 c1          	addss  %xmm1,%xmm0
  406827:	eb 32                	jmp    40685b <__libm_expf_e7+0x1fb>
  406829:	81 fa 00 00 80 ff    	cmp    $0xff800000,%edx
  40682f:	74 06                	je     406837 <__libm_expf_e7+0x1d7>
  406831:	f3 0f 58 c0          	addss  %xmm0,%xmm0
  406835:	eb 24                	jmp    40685b <__libm_expf_e7+0x1fb>
  406837:	0f 57 c0             	xorps  %xmm0,%xmm0
  40683a:	eb 1f                	jmp    40685b <__libm_expf_e7+0x1fb>
  40683c:	f3 0f 11 44 24 14    	movss  %xmm0,0x14(%rsp)
  406842:	f3 0f 10 4c 24 10    	movss  0x10(%rsp),%xmm1
  406848:	f3 0f 10 54 24 10    	movss  0x10(%rsp),%xmm2
  40684e:	8b 4c 24 0c          	mov    0xc(%rsp),%ecx
  406852:	66 0f 6e d9          	movd   %ecx,%xmm3
  406856:	e8 05 ce ff ff       	callq  403660 <__libm_error_support_wrapper_x64f>
  40685b:	f3 0f 11 44 24 14    	movss  %xmm0,0x14(%rsp)
  406861:	48 83 c4 18          	add    $0x18,%rsp
  406865:	c3                   	retq   
  406866:	66 2e 0f 1f 84 00 00 	nopw   %cs:0x0(%rax,%rax,1)
  40686d:	00 00 00 

0000000000406870 <__libm_floor_ex>:
  406870:	f3 0f 1e fa          	endbr64 
  406874:	66 48 0f 7e c0       	movq   %xmm0,%rax
  406879:	48 89 c2             	mov    %rax,%rdx
  40687c:	48 c1 ea 20          	shr    $0x20,%rdx
  406880:	89 d6                	mov    %edx,%esi
  406882:	81 e6 ff ff ff 7f    	and    $0x7fffffff,%esi
  406888:	8d 8e 00 00 10 c0    	lea    -0x3ff00000(%rsi),%ecx
  40688e:	81 f9 ff ff 3f 03    	cmp    $0x33fffff,%ecx
  406894:	77 3c                	ja     4068d2 <__libm_floor_ex+0x62>
  406896:	c1 ee 14             	shr    $0x14,%esi
  406899:	81 f9 ff ff 4f 01    	cmp    $0x14fffff,%ecx
  40689f:	77 4e                	ja     4068ef <__libm_floor_ex+0x7f>
  4068a1:	b1 13                	mov    $0x13,%cl
  4068a3:	40 28 f1             	sub    %sil,%cl
  4068a6:	be ff ff ff ff       	mov    $0xffffffff,%esi
  4068ab:	d3 e6                	shl    %cl,%esi
  4068ad:	89 f1                	mov    %esi,%ecx
  4068af:	f7 d1                	not    %ecx
  4068b1:	21 d1                	and    %edx,%ecx
  4068b3:	21 f2                	and    %esi,%edx
  4068b5:	31 ff                	xor    %edi,%edi
  4068b7:	41 89 c0             	mov    %eax,%r8d
  4068ba:	41 09 c8             	or     %ecx,%r8d
  4068bd:	0f 45 fe             	cmovne %esi,%edi
  4068c0:	48 c1 f8 3f          	sar    $0x3f,%rax
  4068c4:	21 f8                	and    %edi,%eax
  4068c6:	29 c2                	sub    %eax,%edx
  4068c8:	48 c1 e2 20          	shl    $0x20,%rdx
  4068cc:	66 48 0f 6e c2       	movq   %rdx,%xmm0
  4068d1:	c3                   	retq   
  4068d2:	81 fe ff ff ef 3f    	cmp    $0x3fefffff,%esi
  4068d8:	77 14                	ja     4068ee <__libm_floor_ex+0x7e>
  4068da:	09 c6                	or     %eax,%esi
  4068dc:	74 10                	je     4068ee <__libm_floor_ex+0x7e>
  4068de:	48 c1 e8 3f          	shr    $0x3f,%rax
  4068e2:	48 8d 0d 47 f2 00 00 	lea    0xf247(%rip),%rcx        # 415b30 <_pzero_none>
  4068e9:	f3 0f 7e 04 c1       	movq   (%rcx,%rax,8),%xmm0
  4068ee:	c3                   	retq   
  4068ef:	b1 33                	mov    $0x33,%cl
  4068f1:	40 28 f1             	sub    %sil,%cl
  4068f4:	ba ff ff ff ff       	mov    $0xffffffff,%edx
  4068f9:	d3 e2                	shl    %cl,%edx
  4068fb:	89 d1                	mov    %edx,%ecx
  4068fd:	f7 d1                	not    %ecx
  4068ff:	48 63 f2             	movslq %edx,%rsi
  406902:	21 c2                	and    %eax,%edx
